
arduino.elf:     file format elf32-avr

Sections:
Idx Name          Size      VMA       LMA       File off  Algn
  0 .data         0000018c  00800100  00004178  0000420c  2**0
                  CONTENTS, ALLOC, LOAD, DATA
  1 .text         00004178  00000000  00000000  00000094  2**2
                  CONTENTS, ALLOC, LOAD, READONLY, CODE
  2 .bss          000000fb  0080028c  0080028c  00004398  2**0
                  ALLOC
  3 .comment      00000011  00000000  00000000  00004398  2**0
                  CONTENTS, READONLY
  4 .note.gnu.avr.deviceinfo 00000040  00000000  00000000  000043ac  2**2
                  CONTENTS, READONLY
  5 .debug_aranges 00000220  00000000  00000000  000043f0  2**3
                  CONTENTS, READONLY, DEBUGGING
  6 .debug_info   0000125f  00000000  00000000  00004610  2**0
                  CONTENTS, READONLY, DEBUGGING
  7 .debug_abbrev 000006f6  00000000  00000000  0000586f  2**0
                  CONTENTS, READONLY, DEBUGGING
  8 .debug_line   00000c2a  00000000  00000000  00005f65  2**0
                  CONTENTS, READONLY, DEBUGGING
  9 .debug_str    00000208  00000000  00000000  00006b8f  2**0
                  CONTENTS, READONLY, DEBUGGING

Disassembly of section .text:

00000000 <__vectors>:
       0:	0c 94 5f 00 	jmp	0xbe	; 0xbe <__dtors_end>
       4:	0c 94 be 13 	jmp	0x277c	; 0x277c <__vector_1>
       8:	0c 94 e5 13 	jmp	0x27ca	; 0x27ca <__vector_2>
       c:	0c 94 87 00 	jmp	0x10e	; 0x10e <__bad_interrupt>
      10:	0c 94 87 00 	jmp	0x10e	; 0x10e <__bad_interrupt>
      14:	0c 94 87 00 	jmp	0x10e	; 0x10e <__bad_interrupt>
      18:	0c 94 87 00 	jmp	0x10e	; 0x10e <__bad_interrupt>
      1c:	0c 94 87 00 	jmp	0x10e	; 0x10e <__bad_interrupt>
      20:	0c 94 87 00 	jmp	0x10e	; 0x10e <__bad_interrupt>
      24:	0c 94 87 00 	jmp	0x10e	; 0x10e <__bad_interrupt>
      28:	0c 94 87 00 	jmp	0x10e	; 0x10e <__bad_interrupt>
      2c:	0c 94 9c 1b 	jmp	0x3738	; 0x3738 <__vector_11>
      30:	0c 94 87 00 	jmp	0x10e	; 0x10e <__bad_interrupt>
      34:	0c 94 87 00 	jmp	0x10e	; 0x10e <__bad_interrupt>
      38:	0c 94 87 00 	jmp	0x10e	; 0x10e <__bad_interrupt>
      3c:	0c 94 87 00 	jmp	0x10e	; 0x10e <__bad_interrupt>
      40:	0c 94 79 12 	jmp	0x24f2	; 0x24f2 <__vector_16>
      44:	0c 94 87 00 	jmp	0x10e	; 0x10e <__bad_interrupt>
      48:	0c 94 3a 15 	jmp	0x2a74	; 0x2a74 <__vector_18>
      4c:	0c 94 6c 15 	jmp	0x2ad8	; 0x2ad8 <__vector_19>
      50:	0c 94 87 00 	jmp	0x10e	; 0x10e <__bad_interrupt>
      54:	0c 94 87 00 	jmp	0x10e	; 0x10e <__bad_interrupt>
      58:	0c 94 87 00 	jmp	0x10e	; 0x10e <__bad_interrupt>
      5c:	0c 94 87 00 	jmp	0x10e	; 0x10e <__bad_interrupt>
      60:	0c 94 87 00 	jmp	0x10e	; 0x10e <__bad_interrupt>
      64:	0c 94 87 00 	jmp	0x10e	; 0x10e <__bad_interrupt>

00000068 <__trampolines_end>:
      68:	00 00       	nop
      6a:	00 08       	sbc	r0, r0
      6c:	00 02       	muls	r16, r16
      6e:	01 00       	.word	0x0001	; ????
      70:	00 03       	mulsu	r16, r16
      72:	04 07       	cpc	r16, r20
	...

0000007c <digital_pin_to_bit_mask_PGM>:
      7c:	01 02 04 08 10 20 40 80 01 02 04 08 10 20 01 02     ..... @...... ..
      8c:	04 08 10 20                                         ... 

00000090 <digital_pin_to_port_PGM>:
      90:	04 04 04 04 04 04 04 04 02 02 02 02 02 02 03 03     ................
      a0:	03 03 03 03                                         ....

000000a4 <port_to_output_PGM>:
      a4:	00 00 00 00 25 00 28 00 2b 00                       ....%.(.+.

000000ae <port_to_mode_PGM>:
      ae:	00 00 00 00 24 00 27 00 2a 00                       ....$.'.*.

000000b8 <__ctors_start>:
      b8:	60 12       	cpse	r6, r16
      ba:	92 15       	cp	r25, r2

000000bc <__ctors_end>:
      bc:	68 12       	cpse	r6, r24

000000be <__dtors_end>:
      be:	11 24       	eor	r1, r1
      c0:	1f be       	out	0x3f, r1	; 63
      c2:	cf ef       	ldi	r28, 0xFF	; 255
      c4:	d8 e0       	ldi	r29, 0x08	; 8
      c6:	de bf       	out	0x3e, r29	; 62
      c8:	cd bf       	out	0x3d, r28	; 61

000000ca <__do_copy_data>:
      ca:	12 e0       	ldi	r17, 0x02	; 2
      cc:	a0 e0       	ldi	r26, 0x00	; 0
      ce:	b1 e0       	ldi	r27, 0x01	; 1
      d0:	e8 e7       	ldi	r30, 0x78	; 120
      d2:	f1 e4       	ldi	r31, 0x41	; 65
      d4:	02 c0       	rjmp	.+4      	; 0xda <__do_copy_data+0x10>
      d6:	05 90       	lpm	r0, Z+
      d8:	0d 92       	st	X+, r0
      da:	ac 38       	cpi	r26, 0x8C	; 140
      dc:	b1 07       	cpc	r27, r17
      de:	d9 f7       	brne	.-10     	; 0xd6 <__do_copy_data+0xc>

000000e0 <__do_clear_bss>:
      e0:	23 e0       	ldi	r18, 0x03	; 3
      e2:	ac e8       	ldi	r26, 0x8C	; 140
      e4:	b2 e0       	ldi	r27, 0x02	; 2
      e6:	01 c0       	rjmp	.+2      	; 0xea <.do_clear_bss_start>

000000e8 <.do_clear_bss_loop>:
      e8:	1d 92       	st	X+, r1

000000ea <.do_clear_bss_start>:
      ea:	a7 38       	cpi	r26, 0x87	; 135
      ec:	b2 07       	cpc	r27, r18
      ee:	e1 f7       	brne	.-8      	; 0xe8 <.do_clear_bss_loop>

000000f0 <__do_global_ctors>:
      f0:	10 e0       	ldi	r17, 0x00	; 0
      f2:	ce e5       	ldi	r28, 0x5E	; 94
      f4:	d0 e0       	ldi	r29, 0x00	; 0
      f6:	04 c0       	rjmp	.+8      	; 0x100 <__do_global_ctors+0x10>
      f8:	21 97       	sbiw	r28, 0x01	; 1
      fa:	fe 01       	movw	r30, r28
      fc:	0e 94 da 1c 	call	0x39b4	; 0x39b4 <__tablejump2__>
     100:	cc 35       	cpi	r28, 0x5C	; 92
     102:	d1 07       	cpc	r29, r17
     104:	c9 f7       	brne	.-14     	; 0xf8 <__do_global_ctors+0x8>
     106:	0e 94 4c 12 	call	0x2498	; 0x2498 <main>
     10a:	0c 94 af 20 	jmp	0x415e	; 0x415e <__do_global_dtors>

0000010e <__bad_interrupt>:
     10e:	0c 94 98 1b 	jmp	0x3730	; 0x3730 <__vector_default>
	...

00000114 <osEE_hal_save_ctx_and_restore_ctx>:
     114:	2f 92       	push	r2
     116:	3f 92       	push	r3
     118:	4f 92       	push	r4
     11a:	5f 92       	push	r5
     11c:	6f 92       	push	r6
     11e:	7f 92       	push	r7
     120:	8f 92       	push	r8
     122:	9f 92       	push	r9
     124:	af 92       	push	r10
     126:	bf 92       	push	r11
     128:	cf 92       	push	r12
     12a:	df 92       	push	r13
     12c:	ef 92       	push	r14
     12e:	ff 92       	push	r15
     130:	0f 93       	push	r16
     132:	1f 93       	push	r17
     134:	cf 93       	push	r28
     136:	df 93       	push	r29
     138:	e4 2f       	mov	r30, r20
     13a:	f5 2f       	mov	r31, r21
     13c:	41 90       	ld	r4, Z+
     13e:	50 80       	ld	r5, Z
     140:	4f 92       	push	r4
     142:	5f 92       	push	r5
     144:	e4 2f       	mov	r30, r20
     146:	f5 2f       	mov	r31, r21
     148:	4d b6       	in	r4, 0x3d	; 61
     14a:	5e b6       	in	r5, 0x3e	; 62
     14c:	41 92       	st	Z+, r4
     14e:	50 82       	st	Z, r5
     150:	0c 94 aa 00 	jmp	0x154	; 0x154 <osEE_hal_restore_ctx>

00000154 <osEE_hal_restore_ctx>:
     154:	e6 2f       	mov	r30, r22
     156:	f7 2f       	mov	r31, r23
     158:	41 90       	ld	r4, Z+
     15a:	50 80       	ld	r5, Z
     15c:	4d be       	out	0x3d, r4	; 61
     15e:	5e be       	out	0x3e, r5	; 62
     160:	5f 90       	pop	r5
     162:	4f 90       	pop	r4
     164:	e6 2f       	mov	r30, r22
     166:	f7 2f       	mov	r31, r23
     168:	41 92       	st	Z+, r4
     16a:	50 82       	st	Z, r5
     16c:	df 91       	pop	r29
     16e:	cf 91       	pop	r28
     170:	1f 91       	pop	r17
     172:	0f 91       	pop	r16
     174:	ff 90       	pop	r15
     176:	ef 90       	pop	r14
     178:	df 90       	pop	r13
     17a:	cf 90       	pop	r12
     17c:	bf 90       	pop	r11
     17e:	af 90       	pop	r10
     180:	9f 90       	pop	r9
     182:	8f 90       	pop	r8
     184:	7f 90       	pop	r7
     186:	6f 90       	pop	r6
     188:	5f 90       	pop	r5
     18a:	4f 90       	pop	r4
     18c:	3f 90       	pop	r3
     18e:	2f 90       	pop	r2
     190:	0c 94 39 17 	jmp	0x2e72	; 0x2e72 <osEE_scheduler_task_wrapper_restore>

00000194 <osEE_hal_ready2stacked>:
     194:	e6 2f       	mov	r30, r22
     196:	f7 2f       	mov	r31, r23
     198:	41 91       	ld	r20, Z+
     19a:	50 81       	ld	r21, Z
     19c:	4d bf       	out	0x3d, r20	; 61
     19e:	5e bf       	out	0x3e, r21	; 62
     1a0:	0c 94 42 17 	jmp	0x2e84	; 0x2e84 <osEE_scheduler_task_wrapper_run>

000001a4 <osEE_hal_save_ctx_and_ready2stacked>:
     1a4:	2f 92       	push	r2
     1a6:	3f 92       	push	r3
     1a8:	4f 92       	push	r4
     1aa:	5f 92       	push	r5
     1ac:	6f 92       	push	r6
     1ae:	7f 92       	push	r7
     1b0:	8f 92       	push	r8
     1b2:	9f 92       	push	r9
     1b4:	af 92       	push	r10
     1b6:	bf 92       	push	r11
     1b8:	cf 92       	push	r12
     1ba:	df 92       	push	r13
     1bc:	ef 92       	push	r14
     1be:	ff 92       	push	r15
     1c0:	0f 93       	push	r16
     1c2:	1f 93       	push	r17
     1c4:	cf 93       	push	r28
     1c6:	df 93       	push	r29
     1c8:	e4 2f       	mov	r30, r20
     1ca:	f5 2f       	mov	r31, r21
     1cc:	41 90       	ld	r4, Z+
     1ce:	50 80       	ld	r5, Z
     1d0:	4f 92       	push	r4
     1d2:	5f 92       	push	r5
     1d4:	e4 2f       	mov	r30, r20
     1d6:	f5 2f       	mov	r31, r21
     1d8:	4d b6       	in	r4, 0x3d	; 61
     1da:	5e b6       	in	r5, 0x3e	; 62
     1dc:	41 92       	st	Z+, r4
     1de:	50 82       	st	Z, r5
     1e0:	0c 94 ca 00 	jmp	0x194	; 0x194 <osEE_hal_ready2stacked>

000001e4 <osEE_hal_terminate_ctx>:
     1e4:	e8 2f       	mov	r30, r24
     1e6:	f9 2f       	mov	r31, r25
     1e8:	41 91       	ld	r20, Z+
     1ea:	50 81       	ld	r21, Z
     1ec:	4d bf       	out	0x3d, r20	; 61
     1ee:	5e bf       	out	0x3e, r21	; 62
     1f0:	e6 2f       	mov	r30, r22
     1f2:	f7 2f       	mov	r31, r23
     1f4:	09 94       	ijmp
	...

000001f8 <_ZL23enterU32InBufferAtIndexmPhh>:
     1f8:	fa 01       	movw	r30, r20
     1fa:	e2 0f       	add	r30, r18
     1fc:	f1 1d       	adc	r31, r1
     1fe:	60 83       	st	Z, r22
     200:	71 83       	std	Z+1, r23	; 0x01
     202:	82 83       	std	Z+2, r24	; 0x02
     204:	93 83       	std	Z+3, r25	; 0x03
     206:	08 95       	ret

00000208 <_ZL20u32FromBufferAtIndexPhh>:
     208:	fc 01       	movw	r30, r24
     20a:	e6 0f       	add	r30, r22
     20c:	f1 1d       	adc	r31, r1
     20e:	20 81       	ld	r18, Z
     210:	31 81       	ldd	r19, Z+1	; 0x01
     212:	62 81       	ldd	r22, Z+2	; 0x02
     214:	70 e0       	ldi	r23, 0x00	; 0
     216:	90 e0       	ldi	r25, 0x00	; 0
     218:	80 e0       	ldi	r24, 0x00	; 0
     21a:	cb 01       	movw	r24, r22
     21c:	77 27       	eor	r23, r23
     21e:	66 27       	eor	r22, r22
     220:	73 2b       	or	r23, r19
     222:	62 2b       	or	r22, r18
     224:	23 81       	ldd	r18, Z+3	; 0x03
     226:	92 2b       	or	r25, r18
     228:	08 95       	ret

0000022a <_ZL19lengthCodeForLengthh>:
     22a:	88 31       	cpi	r24, 0x18	; 24
     22c:	11 f1       	breq	.+68     	; 0x272 <_ZL19lengthCodeForLengthh+0x48>
     22e:	58 f4       	brcc	.+22     	; 0x246 <_ZL19lengthCodeForLengthh+0x1c>
     230:	80 31       	cpi	r24, 0x10	; 16
     232:	71 f1       	breq	.+92     	; 0x290 <_ZL19lengthCodeForLengthh+0x66>
     234:	84 31       	cpi	r24, 0x14	; 20
     236:	c1 f0       	breq	.+48     	; 0x268 <_ZL19lengthCodeForLengthh+0x3e>
     238:	8c 30       	cpi	r24, 0x0C	; 12
     23a:	81 f4       	brne	.+32     	; 0x25c <_ZL19lengthCodeForLengthh+0x32>
     23c:	69 e0       	ldi	r22, 0x09	; 9
     23e:	70 e0       	ldi	r23, 0x00	; 0
     240:	80 e0       	ldi	r24, 0x00	; 0
     242:	90 e0       	ldi	r25, 0x00	; 0
     244:	08 95       	ret
     246:	80 33       	cpi	r24, 0x30	; 48
     248:	c9 f0       	breq	.+50     	; 0x27c <_ZL19lengthCodeForLengthh+0x52>
     24a:	80 34       	cpi	r24, 0x40	; 64
     24c:	e1 f0       	breq	.+56     	; 0x286 <_ZL19lengthCodeForLengthh+0x5c>
     24e:	80 32       	cpi	r24, 0x20	; 32
     250:	29 f4       	brne	.+10     	; 0x25c <_ZL19lengthCodeForLengthh+0x32>
     252:	6d e0       	ldi	r22, 0x0D	; 13
     254:	70 e0       	ldi	r23, 0x00	; 0
     256:	80 e0       	ldi	r24, 0x00	; 0
     258:	90 e0       	ldi	r25, 0x00	; 0
     25a:	08 95       	ret
     25c:	8f 70       	andi	r24, 0x0F	; 15
     25e:	68 2f       	mov	r22, r24
     260:	70 e0       	ldi	r23, 0x00	; 0
     262:	90 e0       	ldi	r25, 0x00	; 0
     264:	80 e0       	ldi	r24, 0x00	; 0
     266:	08 95       	ret
     268:	6b e0       	ldi	r22, 0x0B	; 11
     26a:	70 e0       	ldi	r23, 0x00	; 0
     26c:	80 e0       	ldi	r24, 0x00	; 0
     26e:	90 e0       	ldi	r25, 0x00	; 0
     270:	08 95       	ret
     272:	6c e0       	ldi	r22, 0x0C	; 12
     274:	70 e0       	ldi	r23, 0x00	; 0
     276:	80 e0       	ldi	r24, 0x00	; 0
     278:	90 e0       	ldi	r25, 0x00	; 0
     27a:	08 95       	ret
     27c:	6e e0       	ldi	r22, 0x0E	; 14
     27e:	70 e0       	ldi	r23, 0x00	; 0
     280:	80 e0       	ldi	r24, 0x00	; 0
     282:	90 e0       	ldi	r25, 0x00	; 0
     284:	08 95       	ret
     286:	6f e0       	ldi	r22, 0x0F	; 15
     288:	70 e0       	ldi	r23, 0x00	; 0
     28a:	80 e0       	ldi	r24, 0x00	; 0
     28c:	90 e0       	ldi	r25, 0x00	; 0
     28e:	08 95       	ret
     290:	6a e0       	ldi	r22, 0x0A	; 10
     292:	70 e0       	ldi	r23, 0x00	; 0
     294:	80 e0       	ldi	r24, 0x00	; 0
     296:	90 e0       	ldi	r25, 0x00	; 0
     298:	08 95       	ret

0000029a <_ZN12ACANFDBuffer6removeER12CANFDMessage.part.2>:
     29a:	cf 93       	push	r28
     29c:	df 93       	push	r29
     29e:	ec 01       	movw	r28, r24
     2a0:	4e 81       	ldd	r20, Y+6	; 0x06
     2a2:	5f 81       	ldd	r21, Y+7	; 0x07
     2a4:	88 e4       	ldi	r24, 0x48	; 72
     2a6:	84 9f       	mul	r24, r20
     2a8:	90 01       	movw	r18, r0
     2aa:	85 9f       	mul	r24, r21
     2ac:	30 0d       	add	r19, r0
     2ae:	11 24       	eor	r1, r1
     2b0:	e8 81       	ld	r30, Y
     2b2:	f9 81       	ldd	r31, Y+1	; 0x01
     2b4:	e2 0f       	add	r30, r18
     2b6:	f3 1f       	adc	r31, r19
     2b8:	db 01       	movw	r26, r22
     2ba:	01 90       	ld	r0, Z+
     2bc:	0d 92       	st	X+, r0
     2be:	8a 95       	dec	r24
     2c0:	e1 f7       	brne	.-8      	; 0x2ba <_ZN12ACANFDBuffer6removeER12CANFDMessage.part.2+0x20>
     2c2:	8a 85       	ldd	r24, Y+10	; 0x0a
     2c4:	9b 85       	ldd	r25, Y+11	; 0x0b
     2c6:	ac 85       	ldd	r26, Y+12	; 0x0c
     2c8:	bd 85       	ldd	r27, Y+13	; 0x0d
     2ca:	01 97       	sbiw	r24, 0x01	; 1
     2cc:	a1 09       	sbc	r26, r1
     2ce:	b1 09       	sbc	r27, r1
     2d0:	8a 87       	std	Y+10, r24	; 0x0a
     2d2:	9b 87       	std	Y+11, r25	; 0x0b
     2d4:	ac 87       	std	Y+12, r26	; 0x0c
     2d6:	bd 87       	std	Y+13, r27	; 0x0d
     2d8:	8e 81       	ldd	r24, Y+6	; 0x06
     2da:	9f 81       	ldd	r25, Y+7	; 0x07
     2dc:	a8 85       	ldd	r26, Y+8	; 0x08
     2de:	b9 85       	ldd	r27, Y+9	; 0x09
     2e0:	01 96       	adiw	r24, 0x01	; 1
     2e2:	a1 1d       	adc	r26, r1
     2e4:	b1 1d       	adc	r27, r1
     2e6:	8e 83       	std	Y+6, r24	; 0x06
     2e8:	9f 83       	std	Y+7, r25	; 0x07
     2ea:	a8 87       	std	Y+8, r26	; 0x08
     2ec:	b9 87       	std	Y+9, r27	; 0x09
     2ee:	4a 81       	ldd	r20, Y+2	; 0x02
     2f0:	5b 81       	ldd	r21, Y+3	; 0x03
     2f2:	6c 81       	ldd	r22, Y+4	; 0x04
     2f4:	7d 81       	ldd	r23, Y+5	; 0x05
     2f6:	84 17       	cp	r24, r20
     2f8:	95 07       	cpc	r25, r21
     2fa:	a6 07       	cpc	r26, r22
     2fc:	b7 07       	cpc	r27, r23
     2fe:	21 f4       	brne	.+8      	; 0x308 <_ZN12ACANFDBuffer6removeER12CANFDMessage.part.2+0x6e>
     300:	1e 82       	std	Y+6, r1	; 0x06
     302:	1f 82       	std	Y+7, r1	; 0x07
     304:	18 86       	std	Y+8, r1	; 0x08
     306:	19 86       	std	Y+9, r1	; 0x09
     308:	df 91       	pop	r29
     30a:	cf 91       	pop	r28
     30c:	08 95       	ret

0000030e <_ZN8SPIClass8transferEPvj.part.5>:
     30e:	fc 01       	movw	r30, r24
     310:	20 81       	ld	r18, Z
     312:	2e bd       	out	0x2e, r18	; 46
     314:	9b 01       	movw	r18, r22
     316:	21 50       	subi	r18, 0x01	; 1
     318:	31 09       	sbc	r19, r1
     31a:	41 f0       	breq	.+16     	; 0x32c <_ZN8SPIClass8transferEPvj.part.5+0x1e>
     31c:	51 81       	ldd	r21, Z+1	; 0x01
     31e:	0d b4       	in	r0, 0x2d	; 45
     320:	07 fe       	sbrs	r0, 7
     322:	fd cf       	rjmp	.-6      	; 0x31e <_ZN8SPIClass8transferEPvj.part.5+0x10>
     324:	4e b5       	in	r20, 0x2e	; 46
     326:	5e bd       	out	0x2e, r21	; 46
     328:	41 93       	st	Z+, r20
     32a:	f5 cf       	rjmp	.-22     	; 0x316 <_ZN8SPIClass8transferEPvj.part.5+0x8>
     32c:	61 50       	subi	r22, 0x01	; 1
     32e:	71 09       	sbc	r23, r1
     330:	86 0f       	add	r24, r22
     332:	97 1f       	adc	r25, r23
     334:	0d b4       	in	r0, 0x2d	; 45
     336:	07 fe       	sbrs	r0, 7
     338:	fd cf       	rjmp	.-6      	; 0x334 <_ZN8SPIClass8transferEPvj.part.5+0x26>
     33a:	2e b5       	in	r18, 0x2e	; 46
     33c:	fc 01       	movw	r30, r24
     33e:	20 83       	st	Z, r18
     340:	08 95       	ret

00000342 <_ZN12CANFDMessageC1Ev>:
     342:	fc 01       	movw	r30, r24
     344:	10 82       	st	Z, r1
     346:	11 82       	std	Z+1, r1	; 0x01
     348:	12 82       	std	Z+2, r1	; 0x02
     34a:	13 82       	std	Z+3, r1	; 0x03
     34c:	14 82       	std	Z+4, r1	; 0x04
     34e:	83 e0       	ldi	r24, 0x03	; 3
     350:	85 83       	std	Z+5, r24	; 0x05
     352:	16 82       	std	Z+6, r1	; 0x06
     354:	17 82       	std	Z+7, r1	; 0x07
     356:	df 01       	movw	r26, r30
     358:	18 96       	adiw	r26, 0x08	; 8
     35a:	e8 5b       	subi	r30, 0xB8	; 184
     35c:	ff 4f       	sbci	r31, 0xFF	; 255
     35e:	1d 92       	st	X+, r1
     360:	ae 17       	cp	r26, r30
     362:	bf 07       	cpc	r27, r31
     364:	e1 f7       	brne	.-8      	; 0x35e <_ZN12CANFDMessageC1Ev+0x1c>
     366:	08 95       	ret

00000368 <_ZN12ACANFDBuffer12initWithSizeEm>:
     368:	6f 92       	push	r6
     36a:	7f 92       	push	r7
     36c:	8f 92       	push	r8
     36e:	9f 92       	push	r9
     370:	af 92       	push	r10
     372:	bf 92       	push	r11
     374:	cf 92       	push	r12
     376:	df 92       	push	r13
     378:	ef 92       	push	r14
     37a:	ff 92       	push	r15
     37c:	0f 93       	push	r16
     37e:	1f 93       	push	r17
     380:	cf 93       	push	r28
     382:	df 93       	push	r29
     384:	ec 01       	movw	r28, r24
     386:	4a 01       	movw	r8, r20
     388:	5b 01       	movw	r10, r22
     38a:	88 81       	ld	r24, Y
     38c:	99 81       	ldd	r25, Y+1	; 0x01
     38e:	00 97       	sbiw	r24, 0x00	; 0
     390:	11 f0       	breq	.+4      	; 0x396 <_ZN12ACANFDBuffer12initWithSizeEm+0x2e>
     392:	0e 94 c5 15 	call	0x2b8a	; 0x2b8a <_ZdaPv>
     396:	64 01       	movw	r12, r8
     398:	88 ec       	ldi	r24, 0xC8	; 200
     39a:	88 16       	cp	r8, r24
     39c:	81 e0       	ldi	r24, 0x01	; 1
     39e:	98 06       	cpc	r9, r24
     3a0:	d0 f4       	brcc	.+52     	; 0x3d6 <_ZN12ACANFDBuffer12initWithSizeEm+0x6e>
     3a2:	28 e4       	ldi	r18, 0x48	; 72
     3a4:	28 9d       	mul	r18, r8
     3a6:	c0 01       	movw	r24, r0
     3a8:	29 9d       	mul	r18, r9
     3aa:	90 0d       	add	r25, r0
     3ac:	11 24       	eor	r1, r1
     3ae:	0e 94 c1 15 	call	0x2b82	; 0x2b82 <_Znaj>
     3b2:	3c 01       	movw	r6, r24
     3b4:	8c 01       	movw	r16, r24
     3b6:	f1 2c       	mov	r15, r1
     3b8:	e1 2c       	mov	r14, r1
     3ba:	8f ef       	ldi	r24, 0xFF	; 255
     3bc:	e8 1a       	sub	r14, r24
     3be:	f8 0a       	sbc	r15, r24
     3c0:	c6 01       	movw	r24, r12
     3c2:	8e 19       	sub	r24, r14
     3c4:	9f 09       	sbc	r25, r15
     3c6:	97 fd       	sbrc	r25, 7
     3c8:	09 c0       	rjmp	.+18     	; 0x3dc <_ZN12ACANFDBuffer12initWithSizeEm+0x74>
     3ca:	c8 01       	movw	r24, r16
     3cc:	0e 94 a1 01 	call	0x342	; 0x342 <_ZN12CANFDMessageC1Ev>
     3d0:	08 5b       	subi	r16, 0xB8	; 184
     3d2:	1f 4f       	sbci	r17, 0xFF	; 255
     3d4:	f2 cf       	rjmp	.-28     	; 0x3ba <_ZN12ACANFDBuffer12initWithSizeEm+0x52>
     3d6:	8f ef       	ldi	r24, 0xFF	; 255
     3d8:	9f ef       	ldi	r25, 0xFF	; 255
     3da:	e9 cf       	rjmp	.-46     	; 0x3ae <_ZN12ACANFDBuffer12initWithSizeEm+0x46>
     3dc:	68 82       	st	Y, r6
     3de:	79 82       	std	Y+1, r7	; 0x01
     3e0:	8a 82       	std	Y+2, r8	; 0x02
     3e2:	9b 82       	std	Y+3, r9	; 0x03
     3e4:	ac 82       	std	Y+4, r10	; 0x04
     3e6:	bd 82       	std	Y+5, r11	; 0x05
     3e8:	1e 82       	std	Y+6, r1	; 0x06
     3ea:	1f 82       	std	Y+7, r1	; 0x07
     3ec:	18 86       	std	Y+8, r1	; 0x08
     3ee:	19 86       	std	Y+9, r1	; 0x09
     3f0:	1a 86       	std	Y+10, r1	; 0x0a
     3f2:	1b 86       	std	Y+11, r1	; 0x0b
     3f4:	1c 86       	std	Y+12, r1	; 0x0c
     3f6:	1d 86       	std	Y+13, r1	; 0x0d
     3f8:	1e 86       	std	Y+14, r1	; 0x0e
     3fa:	1f 86       	std	Y+15, r1	; 0x0f
     3fc:	18 8a       	std	Y+16, r1	; 0x10
     3fe:	19 8a       	std	Y+17, r1	; 0x11
     400:	df 91       	pop	r29
     402:	cf 91       	pop	r28
     404:	1f 91       	pop	r17
     406:	0f 91       	pop	r16
     408:	ff 90       	pop	r15
     40a:	ef 90       	pop	r14
     40c:	df 90       	pop	r13
     40e:	cf 90       	pop	r12
     410:	bf 90       	pop	r11
     412:	af 90       	pop	r10
     414:	9f 90       	pop	r9
     416:	8f 90       	pop	r8
     418:	7f 90       	pop	r7
     41a:	6f 90       	pop	r6
     41c:	08 95       	ret

0000041e <_ZN12ACANFDBuffer6appendERK12CANFDMessage>:
     41e:	cf 92       	push	r12
     420:	df 92       	push	r13
     422:	ef 92       	push	r14
     424:	ff 92       	push	r15
     426:	0f 93       	push	r16
     428:	1f 93       	push	r17
     42a:	cf 93       	push	r28
     42c:	df 93       	push	r29
     42e:	ec 01       	movw	r28, r24
     430:	fb 01       	movw	r30, r22
     432:	4a 85       	ldd	r20, Y+10	; 0x0a
     434:	5b 85       	ldd	r21, Y+11	; 0x0b
     436:	6c 85       	ldd	r22, Y+12	; 0x0c
     438:	7d 85       	ldd	r23, Y+13	; 0x0d
     43a:	0a 81       	ldd	r16, Y+2	; 0x02
     43c:	1b 81       	ldd	r17, Y+3	; 0x03
     43e:	2c 81       	ldd	r18, Y+4	; 0x04
     440:	3d 81       	ldd	r19, Y+5	; 0x05
     442:	81 e0       	ldi	r24, 0x01	; 1
     444:	40 17       	cp	r20, r16
     446:	51 07       	cpc	r21, r17
     448:	62 07       	cpc	r22, r18
     44a:	73 07       	cpc	r23, r19
     44c:	08 f0       	brcs	.+2      	; 0x450 <_ZN12ACANFDBuffer6appendERK12CANFDMessage+0x32>
     44e:	80 e0       	ldi	r24, 0x00	; 0
     450:	40 17       	cp	r20, r16
     452:	51 07       	cpc	r21, r17
     454:	62 07       	cpc	r22, r18
     456:	73 07       	cpc	r23, r19
     458:	08 f0       	brcs	.+2      	; 0x45c <_ZN12ACANFDBuffer6appendERK12CANFDMessage+0x3e>
     45a:	41 c0       	rjmp	.+130    	; 0x4de <_ZN12ACANFDBuffer6appendERK12CANFDMessage+0xc0>
     45c:	ce 80       	ldd	r12, Y+6	; 0x06
     45e:	df 80       	ldd	r13, Y+7	; 0x07
     460:	e8 84       	ldd	r14, Y+8	; 0x08
     462:	f9 84       	ldd	r15, Y+9	; 0x09
     464:	4c 0d       	add	r20, r12
     466:	5d 1d       	adc	r21, r13
     468:	6e 1d       	adc	r22, r14
     46a:	7f 1d       	adc	r23, r15
     46c:	40 17       	cp	r20, r16
     46e:	51 07       	cpc	r21, r17
     470:	62 07       	cpc	r22, r18
     472:	73 07       	cpc	r23, r19
     474:	20 f0       	brcs	.+8      	; 0x47e <_ZN12ACANFDBuffer6appendERK12CANFDMessage+0x60>
     476:	40 1b       	sub	r20, r16
     478:	51 0b       	sbc	r21, r17
     47a:	62 0b       	sbc	r22, r18
     47c:	73 0b       	sbc	r23, r19
     47e:	98 e4       	ldi	r25, 0x48	; 72
     480:	94 9f       	mul	r25, r20
     482:	90 01       	movw	r18, r0
     484:	95 9f       	mul	r25, r21
     486:	30 0d       	add	r19, r0
     488:	11 24       	eor	r1, r1
     48a:	a8 81       	ld	r26, Y
     48c:	b9 81       	ldd	r27, Y+1	; 0x01
     48e:	a2 0f       	add	r26, r18
     490:	b3 1f       	adc	r27, r19
     492:	01 90       	ld	r0, Z+
     494:	0d 92       	st	X+, r0
     496:	9a 95       	dec	r25
     498:	e1 f7       	brne	.-8      	; 0x492 <_ZN12ACANFDBuffer6appendERK12CANFDMessage+0x74>
     49a:	4a 85       	ldd	r20, Y+10	; 0x0a
     49c:	5b 85       	ldd	r21, Y+11	; 0x0b
     49e:	6c 85       	ldd	r22, Y+12	; 0x0c
     4a0:	7d 85       	ldd	r23, Y+13	; 0x0d
     4a2:	4f 5f       	subi	r20, 0xFF	; 255
     4a4:	5f 4f       	sbci	r21, 0xFF	; 255
     4a6:	6f 4f       	sbci	r22, 0xFF	; 255
     4a8:	7f 4f       	sbci	r23, 0xFF	; 255
     4aa:	4a 87       	std	Y+10, r20	; 0x0a
     4ac:	5b 87       	std	Y+11, r21	; 0x0b
     4ae:	6c 87       	std	Y+12, r22	; 0x0c
     4b0:	7d 87       	std	Y+13, r23	; 0x0d
     4b2:	0e 85       	ldd	r16, Y+14	; 0x0e
     4b4:	1f 85       	ldd	r17, Y+15	; 0x0f
     4b6:	28 89       	ldd	r18, Y+16	; 0x10
     4b8:	39 89       	ldd	r19, Y+17	; 0x11
     4ba:	04 17       	cp	r16, r20
     4bc:	15 07       	cpc	r17, r21
     4be:	26 07       	cpc	r18, r22
     4c0:	37 07       	cpc	r19, r23
     4c2:	20 f4       	brcc	.+8      	; 0x4cc <_ZN12ACANFDBuffer6appendERK12CANFDMessage+0xae>
     4c4:	4e 87       	std	Y+14, r20	; 0x0e
     4c6:	5f 87       	std	Y+15, r21	; 0x0f
     4c8:	68 8b       	std	Y+16, r22	; 0x10
     4ca:	79 8b       	std	Y+17, r23	; 0x11
     4cc:	df 91       	pop	r29
     4ce:	cf 91       	pop	r28
     4d0:	1f 91       	pop	r17
     4d2:	0f 91       	pop	r16
     4d4:	ff 90       	pop	r15
     4d6:	ef 90       	pop	r14
     4d8:	df 90       	pop	r13
     4da:	cf 90       	pop	r12
     4dc:	08 95       	ret
     4de:	0f 5f       	subi	r16, 0xFF	; 255
     4e0:	1f 4f       	sbci	r17, 0xFF	; 255
     4e2:	2f 4f       	sbci	r18, 0xFF	; 255
     4e4:	3f 4f       	sbci	r19, 0xFF	; 255
     4e6:	0e 87       	std	Y+14, r16	; 0x0e
     4e8:	1f 87       	std	Y+15, r17	; 0x0f
     4ea:	28 8b       	std	Y+16, r18	; 0x10
     4ec:	39 8b       	std	Y+17, r19	; 0x11
     4ee:	ee cf       	rjmp	.-36     	; 0x4cc <_ZN12ACANFDBuffer6appendERK12CANFDMessage+0xae>

000004f0 <_ZN8SPIClass16beginTransactionE11SPISettings>:
     4f0:	20 91 8e 02 	lds	r18, 0x028E	; 0x80028e <_ZN8SPIClass13interruptModeE>
     4f4:	22 23       	and	r18, r18
     4f6:	81 f0       	breq	.+32     	; 0x518 <_ZN8SPIClass16beginTransactionE11SPISettings+0x28>
     4f8:	3f b7       	in	r19, 0x3f	; 63
     4fa:	f8 94       	cli
     4fc:	20 91 8e 02 	lds	r18, 0x028E	; 0x80028e <_ZN8SPIClass13interruptModeE>
     500:	21 30       	cpi	r18, 0x01	; 1
     502:	69 f4       	brne	.+26     	; 0x51e <_ZN8SPIClass16beginTransactionE11SPISettings+0x2e>
     504:	2d b3       	in	r18, 0x1d	; 29
     506:	20 93 8c 02 	sts	0x028C, r18	; 0x80028c <__data_end>
     50a:	4d b3       	in	r20, 0x1d	; 29
     50c:	20 91 8d 02 	lds	r18, 0x028D	; 0x80028d <_ZN8SPIClass13interruptMaskE>
     510:	20 95       	com	r18
     512:	24 23       	and	r18, r20
     514:	2d bb       	out	0x1d, r18	; 29
     516:	3f bf       	out	0x3f, r19	; 63
     518:	8c bd       	out	0x2c, r24	; 44
     51a:	9d bd       	out	0x2d, r25	; 45
     51c:	08 95       	ret
     51e:	30 93 8c 02 	sts	0x028C, r19	; 0x80028c <__data_end>
     522:	fa cf       	rjmp	.-12     	; 0x518 <_ZN8SPIClass16beginTransactionE11SPISettings+0x28>

00000524 <_ZN8SPIClass10transfer16Ej>:
     524:	0c b4       	in	r0, 0x2c	; 44
     526:	05 fc       	sbrc	r0, 5
     528:	0d c0       	rjmp	.+26     	; 0x544 <_ZN8SPIClass10transfer16Ej+0x20>
     52a:	9e bd       	out	0x2e, r25	; 46
     52c:	00 00       	nop
     52e:	0d b4       	in	r0, 0x2d	; 45
     530:	07 fe       	sbrs	r0, 7
     532:	fd cf       	rjmp	.-6      	; 0x52e <_ZN8SPIClass10transfer16Ej+0xa>
     534:	9e b5       	in	r25, 0x2e	; 46
     536:	8e bd       	out	0x2e, r24	; 46
     538:	00 00       	nop
     53a:	0d b4       	in	r0, 0x2d	; 45
     53c:	07 fe       	sbrs	r0, 7
     53e:	fd cf       	rjmp	.-6      	; 0x53a <_ZN8SPIClass10transfer16Ej+0x16>
     540:	8e b5       	in	r24, 0x2e	; 46
     542:	08 95       	ret
     544:	8e bd       	out	0x2e, r24	; 46
     546:	00 00       	nop
     548:	0d b4       	in	r0, 0x2d	; 45
     54a:	07 fe       	sbrs	r0, 7
     54c:	fd cf       	rjmp	.-6      	; 0x548 <_ZN8SPIClass10transfer16Ej+0x24>
     54e:	8e b5       	in	r24, 0x2e	; 46
     550:	9e bd       	out	0x2e, r25	; 46
     552:	00 00       	nop
     554:	0d b4       	in	r0, 0x2d	; 45
     556:	07 fe       	sbrs	r0, 7
     558:	fd cf       	rjmp	.-6      	; 0x554 <_ZN8SPIClass10transfer16Ej+0x30>
     55a:	9e b5       	in	r25, 0x2e	; 46
     55c:	08 95       	ret

0000055e <_ZN8SPIClass14endTransactionEv>:
     55e:	80 91 8e 02 	lds	r24, 0x028E	; 0x80028e <_ZN8SPIClass13interruptModeE>
     562:	88 23       	and	r24, r24
     564:	61 f0       	breq	.+24     	; 0x57e <_ZN8SPIClass14endTransactionEv+0x20>
     566:	9f b7       	in	r25, 0x3f	; 63
     568:	f8 94       	cli
     56a:	20 91 8e 02 	lds	r18, 0x028E	; 0x80028e <_ZN8SPIClass13interruptModeE>
     56e:	80 91 8c 02 	lds	r24, 0x028C	; 0x80028c <__data_end>
     572:	21 30       	cpi	r18, 0x01	; 1
     574:	19 f4       	brne	.+6      	; 0x57c <_ZN8SPIClass14endTransactionEv+0x1e>
     576:	8d bb       	out	0x1d, r24	; 29
     578:	9f bf       	out	0x3f, r25	; 63
     57a:	08 95       	ret
     57c:	8f bf       	out	0x3f, r24	; 63
     57e:	08 95       	ret

00000580 <_ZN10ACAN2517FD8assertCSEv>:
     580:	dc 01       	movw	r26, r24
     582:	d5 96       	adiw	r26, 0x35	; 53
     584:	ed 91       	ld	r30, X+
     586:	fc 91       	ld	r31, X
     588:	d6 97       	sbiw	r26, 0x36	; 54
     58a:	90 81       	ld	r25, Z
     58c:	d7 96       	adiw	r26, 0x37	; 55
     58e:	8c 91       	ld	r24, X
     590:	80 95       	com	r24
     592:	89 23       	and	r24, r25
     594:	80 83       	st	Z, r24
     596:	08 95       	ret

00000598 <_ZN10ACAN2517FD10deassertCSEv>:
     598:	dc 01       	movw	r26, r24
     59a:	d5 96       	adiw	r26, 0x35	; 53
     59c:	ed 91       	ld	r30, X+
     59e:	fc 91       	ld	r31, X
     5a0:	d6 97       	sbiw	r26, 0x36	; 54
     5a2:	90 81       	ld	r25, Z
     5a4:	d7 96       	adiw	r26, 0x37	; 55
     5a6:	8c 91       	ld	r24, X
     5a8:	89 2b       	or	r24, r25
     5aa:	80 83       	st	Z, r24
     5ac:	08 95       	ret

000005ae <_ZN10ACAN2517FDC1EhR8SPIClassh>:
     5ae:	fc 01       	movw	r30, r24
     5b0:	11 82       	std	Z+1, r1	; 0x01
     5b2:	10 82       	st	Z, r1
     5b4:	80 e5       	ldi	r24, 0x50	; 80
     5b6:	82 83       	std	Z+2, r24	; 0x02
     5b8:	13 82       	std	Z+3, r1	; 0x03
     5ba:	55 83       	std	Z+5, r21	; 0x05
     5bc:	44 83       	std	Z+4, r20	; 0x04
     5be:	66 83       	std	Z+6, r22	; 0x06
     5c0:	27 83       	std	Z+7, r18	; 0x07
     5c2:	10 86       	std	Z+8, r1	; 0x08
     5c4:	11 86       	std	Z+9, r1	; 0x09
     5c6:	81 e0       	ldi	r24, 0x01	; 1
     5c8:	82 87       	std	Z+10, r24	; 0x0a
     5ca:	13 86       	std	Z+11, r1	; 0x0b
     5cc:	14 86       	std	Z+12, r1	; 0x0c
     5ce:	15 86       	std	Z+13, r1	; 0x0d
     5d0:	16 86       	std	Z+14, r1	; 0x0e
     5d2:	17 86       	std	Z+15, r1	; 0x0f
     5d4:	10 8a       	std	Z+16, r1	; 0x10
     5d6:	12 8a       	std	Z+18, r1	; 0x12
     5d8:	11 8a       	std	Z+17, r1	; 0x11
     5da:	13 8a       	std	Z+19, r1	; 0x13
     5dc:	14 8a       	std	Z+20, r1	; 0x14
     5de:	15 8a       	std	Z+21, r1	; 0x15
     5e0:	16 8a       	std	Z+22, r1	; 0x16
     5e2:	17 8a       	std	Z+23, r1	; 0x17
     5e4:	10 8e       	std	Z+24, r1	; 0x18
     5e6:	11 8e       	std	Z+25, r1	; 0x19
     5e8:	12 8e       	std	Z+26, r1	; 0x1a
     5ea:	13 8e       	std	Z+27, r1	; 0x1b
     5ec:	14 8e       	std	Z+28, r1	; 0x1c
     5ee:	15 8e       	std	Z+29, r1	; 0x1d
     5f0:	16 8e       	std	Z+30, r1	; 0x1e
     5f2:	17 8e       	std	Z+31, r1	; 0x1f
     5f4:	10 a2       	std	Z+32, r1	; 0x20
     5f6:	11 a2       	std	Z+33, r1	; 0x21
     5f8:	12 a2       	std	Z+34, r1	; 0x22
     5fa:	14 a2       	std	Z+36, r1	; 0x24
     5fc:	13 a2       	std	Z+35, r1	; 0x23
     5fe:	15 a2       	std	Z+37, r1	; 0x25
     600:	16 a2       	std	Z+38, r1	; 0x26
     602:	17 a2       	std	Z+39, r1	; 0x27
     604:	10 a6       	std	Z+40, r1	; 0x28
     606:	11 a6       	std	Z+41, r1	; 0x29
     608:	12 a6       	std	Z+42, r1	; 0x2a
     60a:	13 a6       	std	Z+43, r1	; 0x2b
     60c:	14 a6       	std	Z+44, r1	; 0x2c
     60e:	15 a6       	std	Z+45, r1	; 0x2d
     610:	16 a6       	std	Z+46, r1	; 0x2e
     612:	17 a6       	std	Z+47, r1	; 0x2f
     614:	10 aa       	std	Z+48, r1	; 0x30
     616:	11 aa       	std	Z+49, r1	; 0x31
     618:	12 aa       	std	Z+50, r1	; 0x32
     61a:	13 aa       	std	Z+51, r1	; 0x33
     61c:	14 aa       	std	Z+52, r1	; 0x34
     61e:	08 95       	ret

00000620 <_ZN10ACAN2517FD9availableEv>:
     620:	0f 93       	push	r16
     622:	1f 93       	push	r17
     624:	cf 93       	push	r28
     626:	8c 01       	movw	r16, r24
     628:	fc 01       	movw	r30, r24
     62a:	82 81       	ldd	r24, Z+2	; 0x02
     62c:	93 81       	ldd	r25, Z+3	; 0x03
     62e:	0e 94 78 02 	call	0x4f0	; 0x4f0 <_ZN8SPIClass16beginTransactionE11SPISettings>
     632:	f8 94       	cli
     634:	c1 e0       	ldi	r28, 0x01	; 1
     636:	f8 01       	movw	r30, r16
     638:	83 8d       	ldd	r24, Z+27	; 0x1b
     63a:	94 8d       	ldd	r25, Z+28	; 0x1c
     63c:	a5 8d       	ldd	r26, Z+29	; 0x1d
     63e:	b6 8d       	ldd	r27, Z+30	; 0x1e
     640:	89 2b       	or	r24, r25
     642:	8a 2b       	or	r24, r26
     644:	8b 2b       	or	r24, r27
     646:	09 f4       	brne	.+2      	; 0x64a <_ZN10ACAN2517FD9availableEv+0x2a>
     648:	c0 e0       	ldi	r28, 0x00	; 0
     64a:	78 94       	sei
     64c:	0e 94 af 02 	call	0x55e	; 0x55e <_ZN8SPIClass14endTransactionEv>
     650:	8c 2f       	mov	r24, r28
     652:	cf 91       	pop	r28
     654:	1f 91       	pop	r17
     656:	0f 91       	pop	r16
     658:	08 95       	ret

0000065a <_ZN10ACAN2517FD37writeRegister32Assume_SPI_transactionEjm>:
     65a:	0f 93       	push	r16
     65c:	1f 93       	push	r17
     65e:	cf 93       	push	r28
     660:	df 93       	push	r29
     662:	00 d0       	rcall	.+0      	; 0x664 <_ZN10ACAN2517FD37writeRegister32Assume_SPI_transactionEjm+0xa>
     664:	00 d0       	rcall	.+0      	; 0x666 <_ZN10ACAN2517FD37writeRegister32Assume_SPI_transactionEjm+0xc>
     666:	00 d0       	rcall	.+0      	; 0x668 <_ZN10ACAN2517FD37writeRegister32Assume_SPI_transactionEjm+0xe>
     668:	cd b7       	in	r28, 0x3d	; 61
     66a:	de b7       	in	r29, 0x3e	; 62
     66c:	8c 01       	movw	r16, r24
     66e:	fb 01       	movw	r30, r22
     670:	ca 01       	movw	r24, r20
     672:	b9 01       	movw	r22, r18
     674:	1b 82       	std	Y+3, r1	; 0x03
     676:	1c 82       	std	Y+4, r1	; 0x04
     678:	1d 82       	std	Y+5, r1	; 0x05
     67a:	1e 82       	std	Y+6, r1	; 0x06
     67c:	9f 01       	movw	r18, r30
     67e:	3f 70       	andi	r19, 0x0F	; 15
     680:	30 62       	ori	r19, 0x20	; 32
     682:	39 83       	std	Y+1, r19	; 0x01
     684:	2a 83       	std	Y+2, r18	; 0x02
     686:	22 e0       	ldi	r18, 0x02	; 2
     688:	ae 01       	movw	r20, r28
     68a:	4f 5f       	subi	r20, 0xFF	; 255
     68c:	5f 4f       	sbci	r21, 0xFF	; 255
     68e:	0e 94 fc 00 	call	0x1f8	; 0x1f8 <_ZL23enterU32InBufferAtIndexmPhh>
     692:	c8 01       	movw	r24, r16
     694:	0e 94 c0 02 	call	0x580	; 0x580 <_ZN10ACAN2517FD8assertCSEv>
     698:	66 e0       	ldi	r22, 0x06	; 6
     69a:	70 e0       	ldi	r23, 0x00	; 0
     69c:	ce 01       	movw	r24, r28
     69e:	01 96       	adiw	r24, 0x01	; 1
     6a0:	0e 94 87 01 	call	0x30e	; 0x30e <_ZN8SPIClass8transferEPvj.part.5>
     6a4:	c8 01       	movw	r24, r16
     6a6:	0e 94 cc 02 	call	0x598	; 0x598 <_ZN10ACAN2517FD10deassertCSEv>
     6aa:	26 96       	adiw	r28, 0x06	; 6
     6ac:	0f b6       	in	r0, 0x3f	; 63
     6ae:	f8 94       	cli
     6b0:	de bf       	out	0x3e, r29	; 62
     6b2:	0f be       	out	0x3f, r0	; 63
     6b4:	cd bf       	out	0x3d, r28	; 61
     6b6:	df 91       	pop	r29
     6b8:	cf 91       	pop	r28
     6ba:	1f 91       	pop	r17
     6bc:	0f 91       	pop	r16
     6be:	08 95       	ret

000006c0 <_ZN10ACAN2517FD36writeRegister8Assume_SPI_transactionEjh>:
     6c0:	0f 93       	push	r16
     6c2:	1f 93       	push	r17
     6c4:	cf 93       	push	r28
     6c6:	df 93       	push	r29
     6c8:	00 d0       	rcall	.+0      	; 0x6ca <_ZN10ACAN2517FD36writeRegister8Assume_SPI_transactionEjh+0xa>
     6ca:	1f 92       	push	r1
     6cc:	cd b7       	in	r28, 0x3d	; 61
     6ce:	de b7       	in	r29, 0x3e	; 62
     6d0:	8c 01       	movw	r16, r24
     6d2:	7f 70       	andi	r23, 0x0F	; 15
     6d4:	70 62       	ori	r23, 0x20	; 32
     6d6:	79 83       	std	Y+1, r23	; 0x01
     6d8:	6a 83       	std	Y+2, r22	; 0x02
     6da:	4b 83       	std	Y+3, r20	; 0x03
     6dc:	0e 94 c0 02 	call	0x580	; 0x580 <_ZN10ACAN2517FD8assertCSEv>
     6e0:	63 e0       	ldi	r22, 0x03	; 3
     6e2:	70 e0       	ldi	r23, 0x00	; 0
     6e4:	ce 01       	movw	r24, r28
     6e6:	01 96       	adiw	r24, 0x01	; 1
     6e8:	0e 94 87 01 	call	0x30e	; 0x30e <_ZN8SPIClass8transferEPvj.part.5>
     6ec:	c8 01       	movw	r24, r16
     6ee:	0e 94 cc 02 	call	0x598	; 0x598 <_ZN10ACAN2517FD10deassertCSEv>
     6f2:	0f 90       	pop	r0
     6f4:	0f 90       	pop	r0
     6f6:	0f 90       	pop	r0
     6f8:	df 91       	pop	r29
     6fa:	cf 91       	pop	r28
     6fc:	1f 91       	pop	r17
     6fe:	0f 91       	pop	r16
     700:	08 95       	ret

00000702 <_ZN10ACAN2517FD36readRegister32Assume_SPI_transactionEj>:
     702:	0f 93       	push	r16
     704:	1f 93       	push	r17
     706:	cf 93       	push	r28
     708:	df 93       	push	r29
     70a:	00 d0       	rcall	.+0      	; 0x70c <_ZN10ACAN2517FD36readRegister32Assume_SPI_transactionEj+0xa>
     70c:	00 d0       	rcall	.+0      	; 0x70e <_ZN10ACAN2517FD36readRegister32Assume_SPI_transactionEj+0xc>
     70e:	00 d0       	rcall	.+0      	; 0x710 <_ZN10ACAN2517FD36readRegister32Assume_SPI_transactionEj+0xe>
     710:	cd b7       	in	r28, 0x3d	; 61
     712:	de b7       	in	r29, 0x3e	; 62
     714:	8c 01       	movw	r16, r24
     716:	1b 82       	std	Y+3, r1	; 0x03
     718:	1c 82       	std	Y+4, r1	; 0x04
     71a:	1d 82       	std	Y+5, r1	; 0x05
     71c:	1e 82       	std	Y+6, r1	; 0x06
     71e:	7f 70       	andi	r23, 0x0F	; 15
     720:	70 63       	ori	r23, 0x30	; 48
     722:	79 83       	std	Y+1, r23	; 0x01
     724:	6a 83       	std	Y+2, r22	; 0x02
     726:	0e 94 c0 02 	call	0x580	; 0x580 <_ZN10ACAN2517FD8assertCSEv>
     72a:	66 e0       	ldi	r22, 0x06	; 6
     72c:	70 e0       	ldi	r23, 0x00	; 0
     72e:	ce 01       	movw	r24, r28
     730:	01 96       	adiw	r24, 0x01	; 1
     732:	0e 94 87 01 	call	0x30e	; 0x30e <_ZN8SPIClass8transferEPvj.part.5>
     736:	c8 01       	movw	r24, r16
     738:	0e 94 cc 02 	call	0x598	; 0x598 <_ZN10ACAN2517FD10deassertCSEv>
     73c:	62 e0       	ldi	r22, 0x02	; 2
     73e:	ce 01       	movw	r24, r28
     740:	01 96       	adiw	r24, 0x01	; 1
     742:	0e 94 04 01 	call	0x208	; 0x208 <_ZL20u32FromBufferAtIndexPhh>
     746:	26 96       	adiw	r28, 0x06	; 6
     748:	0f b6       	in	r0, 0x3f	; 63
     74a:	f8 94       	cli
     74c:	de bf       	out	0x3e, r29	; 62
     74e:	0f be       	out	0x3f, r0	; 63
     750:	cd bf       	out	0x3d, r28	; 61
     752:	df 91       	pop	r29
     754:	cf 91       	pop	r28
     756:	1f 91       	pop	r17
     758:	0f 91       	pop	r16
     75a:	08 95       	ret

0000075c <_ZN10ACAN2517FD24appendInControllerTxFIFOERK12CANFDMessage>:
     75c:	2f 92       	push	r2
     75e:	3f 92       	push	r3
     760:	4f 92       	push	r4
     762:	5f 92       	push	r5
     764:	6f 92       	push	r6
     766:	7f 92       	push	r7
     768:	8f 92       	push	r8
     76a:	9f 92       	push	r9
     76c:	af 92       	push	r10
     76e:	bf 92       	push	r11
     770:	cf 92       	push	r12
     772:	df 92       	push	r13
     774:	ef 92       	push	r14
     776:	ff 92       	push	r15
     778:	0f 93       	push	r16
     77a:	1f 93       	push	r17
     77c:	cf 93       	push	r28
     77e:	df 93       	push	r29
     780:	cd b7       	in	r28, 0x3d	; 61
     782:	de b7       	in	r29, 0x3e	; 62
     784:	ce 54       	subi	r28, 0x4E	; 78
     786:	d1 09       	sbc	r29, r1
     788:	0f b6       	in	r0, 0x3f	; 63
     78a:	f8 94       	cli
     78c:	de bf       	out	0x3e, r29	; 62
     78e:	0f be       	out	0x3f, r0	; 63
     790:	cd bf       	out	0x3d, r28	; 61
     792:	5c 01       	movw	r10, r24
     794:	8b 01       	movw	r16, r22
     796:	60 e7       	ldi	r22, 0x70	; 112
     798:	70 e0       	ldi	r23, 0x00	; 0
     79a:	0e 94 81 03 	call	0x702	; 0x702 <_ZN10ACAN2517FD36readRegister32Assume_SPI_transactionEj>
     79e:	1b 01       	movw	r2, r22
     7a0:	2c ef       	ldi	r18, 0xFC	; 252
     7a2:	32 1a       	sub	r3, r18
     7a4:	d8 01       	movw	r26, r16
     7a6:	4d 90       	ld	r4, X+
     7a8:	5d 90       	ld	r5, X+
     7aa:	6d 90       	ld	r6, X+
     7ac:	7c 90       	ld	r7, X
     7ae:	13 97       	sbiw	r26, 0x03	; 3
     7b0:	14 96       	adiw	r26, 0x04	; 4
     7b2:	9c 90       	ld	r9, X
     7b4:	99 20       	and	r9, r9
     7b6:	e1 f0       	breq	.+56     	; 0x7f0 <_ZN10ACAN2517FD24appendInControllerTxFIFOERK12CANFDMessage+0x94>
     7b8:	d3 01       	movw	r26, r6
     7ba:	c2 01       	movw	r24, r4
     7bc:	32 e1       	ldi	r19, 0x12	; 18
     7be:	b6 95       	lsr	r27
     7c0:	a7 95       	ror	r26
     7c2:	97 95       	ror	r25
     7c4:	87 95       	ror	r24
     7c6:	3a 95       	dec	r19
     7c8:	d1 f7       	brne	.-12     	; 0x7be <_ZN10ACAN2517FD24appendInControllerTxFIFOERK12CANFDMessage+0x62>
     7ca:	97 70       	andi	r25, 0x07	; 7
     7cc:	aa 27       	eor	r26, r26
     7ce:	bb 27       	eor	r27, r27
     7d0:	4b e0       	ldi	r20, 0x0B	; 11
     7d2:	44 0c       	add	r4, r4
     7d4:	55 1c       	adc	r5, r5
     7d6:	66 1c       	adc	r6, r6
     7d8:	77 1c       	adc	r7, r7
     7da:	4a 95       	dec	r20
     7dc:	d1 f7       	brne	.-12     	; 0x7d2 <_ZN10ACAN2517FD24appendInControllerTxFIFOERK12CANFDMessage+0x76>
     7de:	44 24       	eor	r4, r4
     7e0:	e8 ef       	ldi	r30, 0xF8	; 248
     7e2:	5e 22       	and	r5, r30
     7e4:	ef e1       	ldi	r30, 0x1F	; 31
     7e6:	7e 22       	and	r7, r30
     7e8:	48 2a       	or	r4, r24
     7ea:	59 2a       	or	r5, r25
     7ec:	6a 2a       	or	r6, r26
     7ee:	7b 2a       	or	r7, r27
     7f0:	d8 01       	movw	r26, r16
     7f2:	17 96       	adiw	r26, 0x07	; 7
     7f4:	8c 90       	ld	r8, X
     7f6:	88 2d       	mov	r24, r8
     7f8:	0e 94 15 01 	call	0x22a	; 0x22a <_ZL19lengthCodeForLengthh>
     7fc:	6b 01       	movw	r12, r22
     7fe:	7c 01       	movw	r14, r24
     800:	99 20       	and	r9, r9
     802:	11 f0       	breq	.+4      	; 0x808 <_ZN10ACAN2517FD24appendInControllerTxFIFOERK12CANFDMessage+0xac>
     804:	68 94       	set
     806:	c4 f8       	bld	r12, 4
     808:	f8 01       	movw	r30, r16
     80a:	85 81       	ldd	r24, Z+5	; 0x05
     80c:	82 30       	cpi	r24, 0x02	; 2
     80e:	09 f4       	brne	.+2      	; 0x812 <_ZN10ACAN2517FD24appendInControllerTxFIFOERK12CANFDMessage+0xb6>
     810:	62 c0       	rjmp	.+196    	; 0x8d6 <_ZN10ACAN2517FD24appendInControllerTxFIFOERK12CANFDMessage+0x17a>
     812:	83 30       	cpi	r24, 0x03	; 3
     814:	09 f4       	brne	.+2      	; 0x818 <_ZN10ACAN2517FD24appendInControllerTxFIFOERK12CANFDMessage+0xbc>
     816:	5a c0       	rjmp	.+180    	; 0x8cc <_ZN10ACAN2517FD24appendInControllerTxFIFOERK12CANFDMessage+0x170>
     818:	81 11       	cpse	r24, r1
     81a:	02 c0       	rjmp	.+4      	; 0x820 <_ZN10ACAN2517FD24appendInControllerTxFIFOERK12CANFDMessage+0xc4>
     81c:	68 94       	set
     81e:	c5 f8       	bld	r12, 5
     820:	91 2c       	mov	r9, r1
     822:	e3 e0       	ldi	r30, 0x03	; 3
     824:	8e 0e       	add	r8, r30
     826:	91 1c       	adc	r9, r1
     828:	95 94       	asr	r9
     82a:	87 94       	ror	r8
     82c:	95 94       	asr	r9
     82e:	87 94       	ror	r8
     830:	c4 01       	movw	r24, r8
     832:	09 2c       	mov	r0, r9
     834:	00 0c       	add	r0, r0
     836:	aa 0b       	sbc	r26, r26
     838:	bb 0b       	sbc	r27, r27
     83a:	2f 96       	adiw	r28, 0x0f	; 15
     83c:	8c af       	std	Y+60, r24	; 0x3c
     83e:	9d af       	std	Y+61, r25	; 0x3d
     840:	ae af       	std	Y+62, r26	; 0x3e
     842:	bf af       	std	Y+63, r27	; 0x3f
     844:	2f 97       	sbiw	r28, 0x0f	; 15
     846:	fe 01       	movw	r30, r28
     848:	33 96       	adiw	r30, 0x03	; 3
     84a:	88 e4       	ldi	r24, 0x48	; 72
     84c:	df 01       	movw	r26, r30
     84e:	1d 92       	st	X+, r1
     850:	8a 95       	dec	r24
     852:	e9 f7       	brne	.-6      	; 0x84e <_ZN10ACAN2517FD24appendInControllerTxFIFOERK12CANFDMessage+0xf2>
     854:	bf e0       	ldi	r27, 0x0F	; 15
     856:	3b 22       	and	r3, r27
     858:	68 94       	set
     85a:	35 f8       	bld	r3, 5
     85c:	39 82       	std	Y+1, r3	; 0x01
     85e:	2a 82       	std	Y+2, r2	; 0x02
     860:	22 e0       	ldi	r18, 0x02	; 2
     862:	ae 01       	movw	r20, r28
     864:	4f 5f       	subi	r20, 0xFF	; 255
     866:	5f 4f       	sbci	r21, 0xFF	; 255
     868:	c3 01       	movw	r24, r6
     86a:	b2 01       	movw	r22, r4
     86c:	0e 94 fc 00 	call	0x1f8	; 0x1f8 <_ZL23enterU32InBufferAtIndexmPhh>
     870:	26 e0       	ldi	r18, 0x06	; 6
     872:	ae 01       	movw	r20, r28
     874:	4f 5f       	subi	r20, 0xFF	; 255
     876:	5f 4f       	sbci	r21, 0xFF	; 255
     878:	c7 01       	movw	r24, r14
     87a:	b6 01       	movw	r22, r12
     87c:	0e 94 fc 00 	call	0x1f8	; 0x1f8 <_ZL23enterU32InBufferAtIndexmPhh>
     880:	08 5f       	subi	r16, 0xF8	; 248
     882:	1f 4f       	sbci	r17, 0xFF	; 255
     884:	2a e0       	ldi	r18, 0x0A	; 10
     886:	f2 2e       	mov	r15, r18
     888:	41 2c       	mov	r4, r1
     88a:	51 2c       	mov	r5, r1
     88c:	32 01       	movw	r6, r4
     88e:	2f 96       	adiw	r28, 0x0f	; 15
     890:	8c ad       	ldd	r24, Y+60	; 0x3c
     892:	9d ad       	ldd	r25, Y+61	; 0x3d
     894:	ae ad       	ldd	r26, Y+62	; 0x3e
     896:	bf ad       	ldd	r27, Y+63	; 0x3f
     898:	2f 97       	sbiw	r28, 0x0f	; 15
     89a:	48 16       	cp	r4, r24
     89c:	59 06       	cpc	r5, r25
     89e:	6a 06       	cpc	r6, r26
     8a0:	7b 06       	cpc	r7, r27
     8a2:	f8 f4       	brcc	.+62     	; 0x8e2 <_ZN10ACAN2517FD24appendInControllerTxFIFOERK12CANFDMessage+0x186>
     8a4:	d8 01       	movw	r26, r16
     8a6:	6d 91       	ld	r22, X+
     8a8:	7d 91       	ld	r23, X+
     8aa:	8d 91       	ld	r24, X+
     8ac:	9d 91       	ld	r25, X+
     8ae:	8d 01       	movw	r16, r26
     8b0:	2f 2d       	mov	r18, r15
     8b2:	ae 01       	movw	r20, r28
     8b4:	4f 5f       	subi	r20, 0xFF	; 255
     8b6:	5f 4f       	sbci	r21, 0xFF	; 255
     8b8:	0e 94 fc 00 	call	0x1f8	; 0x1f8 <_ZL23enterU32InBufferAtIndexmPhh>
     8bc:	bf ef       	ldi	r27, 0xFF	; 255
     8be:	4b 1a       	sub	r4, r27
     8c0:	5b 0a       	sbc	r5, r27
     8c2:	6b 0a       	sbc	r6, r27
     8c4:	7b 0a       	sbc	r7, r27
     8c6:	e4 e0       	ldi	r30, 0x04	; 4
     8c8:	fe 0e       	add	r15, r30
     8ca:	e1 cf       	rjmp	.-62     	; 0x88e <_ZN10ACAN2517FD24appendInControllerTxFIFOERK12CANFDMessage+0x132>
     8cc:	d5 01       	movw	r26, r10
     8ce:	1b 96       	adiw	r26, 0x0b	; 11
     8d0:	8c 91       	ld	r24, X
     8d2:	81 11       	cpse	r24, r1
     8d4:	03 c0       	rjmp	.+6      	; 0x8dc <_ZN10ACAN2517FD24appendInControllerTxFIFOERK12CANFDMessage+0x180>
     8d6:	68 94       	set
     8d8:	c7 f8       	bld	r12, 7
     8da:	a2 cf       	rjmp	.-188    	; 0x820 <_ZN10ACAN2517FD24appendInControllerTxFIFOERK12CANFDMessage+0xc4>
     8dc:	b0 ec       	ldi	r27, 0xC0	; 192
     8de:	cb 2a       	or	r12, r27
     8e0:	9f cf       	rjmp	.-194    	; 0x820 <_ZN10ACAN2517FD24appendInControllerTxFIFOERK12CANFDMessage+0xc4>
     8e2:	c5 01       	movw	r24, r10
     8e4:	0e 94 c0 02 	call	0x580	; 0x580 <_ZN10ACAN2517FD8assertCSEv>
     8e8:	b4 01       	movw	r22, r8
     8ea:	66 0f       	add	r22, r22
     8ec:	77 1f       	adc	r23, r23
     8ee:	66 0f       	add	r22, r22
     8f0:	77 1f       	adc	r23, r23
     8f2:	66 5f       	subi	r22, 0xF6	; 246
     8f4:	7f 4f       	sbci	r23, 0xFF	; 255
     8f6:	ce 01       	movw	r24, r28
     8f8:	01 96       	adiw	r24, 0x01	; 1
     8fa:	0e 94 87 01 	call	0x30e	; 0x30e <_ZN8SPIClass8transferEPvj.part.5>
     8fe:	c5 01       	movw	r24, r10
     900:	0e 94 cc 02 	call	0x598	; 0x598 <_ZN10ACAN2517FD10deassertCSEv>
     904:	43 e0       	ldi	r20, 0x03	; 3
     906:	69 e6       	ldi	r22, 0x69	; 105
     908:	70 e0       	ldi	r23, 0x00	; 0
     90a:	c5 01       	movw	r24, r10
     90c:	0e 94 60 03 	call	0x6c0	; 0x6c0 <_ZN10ACAN2517FD36writeRegister8Assume_SPI_transactionEjh>
     910:	c2 5b       	subi	r28, 0xB2	; 178
     912:	df 4f       	sbci	r29, 0xFF	; 255
     914:	0f b6       	in	r0, 0x3f	; 63
     916:	f8 94       	cli
     918:	de bf       	out	0x3e, r29	; 62
     91a:	0f be       	out	0x3f, r0	; 63
     91c:	cd bf       	out	0x3d, r28	; 61
     91e:	df 91       	pop	r29
     920:	cf 91       	pop	r28
     922:	1f 91       	pop	r17
     924:	0f 91       	pop	r16
     926:	ff 90       	pop	r15
     928:	ef 90       	pop	r14
     92a:	df 90       	pop	r13
     92c:	cf 90       	pop	r12
     92e:	bf 90       	pop	r11
     930:	af 90       	pop	r10
     932:	9f 90       	pop	r9
     934:	8f 90       	pop	r8
     936:	7f 90       	pop	r7
     938:	6f 90       	pop	r6
     93a:	5f 90       	pop	r5
     93c:	4f 90       	pop	r4
     93e:	3f 90       	pop	r3
     940:	2f 90       	pop	r2
     942:	08 95       	ret

00000944 <_ZN10ACAN2517FD17transmitInterruptEv>:
     944:	0f 93       	push	r16
     946:	1f 93       	push	r17
     948:	cf 93       	push	r28
     94a:	df 93       	push	r29
     94c:	cd b7       	in	r28, 0x3d	; 61
     94e:	de b7       	in	r29, 0x3e	; 62
     950:	c8 54       	subi	r28, 0x48	; 72
     952:	d1 09       	sbc	r29, r1
     954:	0f b6       	in	r0, 0x3f	; 63
     956:	f8 94       	cli
     958:	de bf       	out	0x3e, r29	; 62
     95a:	0f be       	out	0x3f, r0	; 63
     95c:	cd bf       	out	0x3d, r28	; 61
     95e:	8c 01       	movw	r16, r24
     960:	ce 01       	movw	r24, r28
     962:	01 96       	adiw	r24, 0x01	; 1
     964:	0e 94 a1 01 	call	0x342	; 0x342 <_ZN12CANFDMessageC1Ev>
     968:	f8 01       	movw	r30, r16
     96a:	85 a5       	ldd	r24, Z+45	; 0x2d
     96c:	96 a5       	ldd	r25, Z+46	; 0x2e
     96e:	a7 a5       	ldd	r26, Z+47	; 0x2f
     970:	b0 a9       	ldd	r27, Z+48	; 0x30
     972:	89 2b       	or	r24, r25
     974:	8a 2b       	or	r24, r26
     976:	8b 2b       	or	r24, r27
     978:	c9 f0       	breq	.+50     	; 0x9ac <_ZN10ACAN2517FD17transmitInterruptEv+0x68>
     97a:	be 01       	movw	r22, r28
     97c:	6f 5f       	subi	r22, 0xFF	; 255
     97e:	7f 4f       	sbci	r23, 0xFF	; 255
     980:	c8 01       	movw	r24, r16
     982:	83 96       	adiw	r24, 0x23	; 35
     984:	0e 94 4d 01 	call	0x29a	; 0x29a <_ZN12ACANFDBuffer6removeER12CANFDMessage.part.2>
     988:	be 01       	movw	r22, r28
     98a:	6f 5f       	subi	r22, 0xFF	; 255
     98c:	7f 4f       	sbci	r23, 0xFF	; 255
     98e:	c8 01       	movw	r24, r16
     990:	0e 94 ae 03 	call	0x75c	; 0x75c <_ZN10ACAN2517FD24appendInControllerTxFIFOERK12CANFDMessage>
     994:	c8 5b       	subi	r28, 0xB8	; 184
     996:	df 4f       	sbci	r29, 0xFF	; 255
     998:	0f b6       	in	r0, 0x3f	; 63
     99a:	f8 94       	cli
     99c:	de bf       	out	0x3e, r29	; 62
     99e:	0f be       	out	0x3f, r0	; 63
     9a0:	cd bf       	out	0x3d, r28	; 61
     9a2:	df 91       	pop	r29
     9a4:	cf 91       	pop	r28
     9a6:	1f 91       	pop	r17
     9a8:	0f 91       	pop	r16
     9aa:	08 95       	ret
     9ac:	40 e9       	ldi	r20, 0x90	; 144
     9ae:	68 e6       	ldi	r22, 0x68	; 104
     9b0:	70 e0       	ldi	r23, 0x00	; 0
     9b2:	c8 01       	movw	r24, r16
     9b4:	0e 94 60 03 	call	0x6c0	; 0x6c0 <_ZN10ACAN2517FD36writeRegister8Assume_SPI_transactionEjh>
     9b8:	f8 01       	movw	r30, r16
     9ba:	11 86       	std	Z+9, r1	; 0x09
     9bc:	eb cf       	rjmp	.-42     	; 0x994 <_ZN10ACAN2517FD17transmitInterruptEv+0x50>

000009be <_ZN10ACAN2517FD36readRegister16Assume_SPI_transactionEj>:
     9be:	0f 93       	push	r16
     9c0:	1f 93       	push	r17
     9c2:	cf 93       	push	r28
     9c4:	df 93       	push	r29
     9c6:	00 d0       	rcall	.+0      	; 0x9c8 <_ZN10ACAN2517FD36readRegister16Assume_SPI_transactionEj+0xa>
     9c8:	00 d0       	rcall	.+0      	; 0x9ca <_ZN10ACAN2517FD36readRegister16Assume_SPI_transactionEj+0xc>
     9ca:	cd b7       	in	r28, 0x3d	; 61
     9cc:	de b7       	in	r29, 0x3e	; 62
     9ce:	8c 01       	movw	r16, r24
     9d0:	1c 82       	std	Y+4, r1	; 0x04
     9d2:	1b 82       	std	Y+3, r1	; 0x03
     9d4:	7f 70       	andi	r23, 0x0F	; 15
     9d6:	70 63       	ori	r23, 0x30	; 48
     9d8:	79 83       	std	Y+1, r23	; 0x01
     9da:	6a 83       	std	Y+2, r22	; 0x02
     9dc:	0e 94 c0 02 	call	0x580	; 0x580 <_ZN10ACAN2517FD8assertCSEv>
     9e0:	64 e0       	ldi	r22, 0x04	; 4
     9e2:	70 e0       	ldi	r23, 0x00	; 0
     9e4:	ce 01       	movw	r24, r28
     9e6:	01 96       	adiw	r24, 0x01	; 1
     9e8:	0e 94 87 01 	call	0x30e	; 0x30e <_ZN8SPIClass8transferEPvj.part.5>
     9ec:	c8 01       	movw	r24, r16
     9ee:	0e 94 cc 02 	call	0x598	; 0x598 <_ZN10ACAN2517FD10deassertCSEv>
     9f2:	8b 81       	ldd	r24, Y+3	; 0x03
     9f4:	9c 81       	ldd	r25, Y+4	; 0x04
     9f6:	0f 90       	pop	r0
     9f8:	0f 90       	pop	r0
     9fa:	0f 90       	pop	r0
     9fc:	0f 90       	pop	r0
     9fe:	df 91       	pop	r29
     a00:	cf 91       	pop	r28
     a02:	1f 91       	pop	r17
     a04:	0f 91       	pop	r16
     a06:	08 95       	ret

00000a08 <_ZN10ACAN2517FD35readRegister8Assume_SPI_transactionEj>:
     a08:	0f 93       	push	r16
     a0a:	1f 93       	push	r17
     a0c:	cf 93       	push	r28
     a0e:	df 93       	push	r29
     a10:	00 d0       	rcall	.+0      	; 0xa12 <_ZN10ACAN2517FD35readRegister8Assume_SPI_transactionEj+0xa>
     a12:	1f 92       	push	r1
     a14:	cd b7       	in	r28, 0x3d	; 61
     a16:	de b7       	in	r29, 0x3e	; 62
     a18:	8c 01       	movw	r16, r24
     a1a:	1b 82       	std	Y+3, r1	; 0x03
     a1c:	7f 70       	andi	r23, 0x0F	; 15
     a1e:	70 63       	ori	r23, 0x30	; 48
     a20:	79 83       	std	Y+1, r23	; 0x01
     a22:	6a 83       	std	Y+2, r22	; 0x02
     a24:	0e 94 c0 02 	call	0x580	; 0x580 <_ZN10ACAN2517FD8assertCSEv>
     a28:	63 e0       	ldi	r22, 0x03	; 3
     a2a:	70 e0       	ldi	r23, 0x00	; 0
     a2c:	ce 01       	movw	r24, r28
     a2e:	01 96       	adiw	r24, 0x01	; 1
     a30:	0e 94 87 01 	call	0x30e	; 0x30e <_ZN8SPIClass8transferEPvj.part.5>
     a34:	c8 01       	movw	r24, r16
     a36:	0e 94 cc 02 	call	0x598	; 0x598 <_ZN10ACAN2517FD10deassertCSEv>
     a3a:	8b 81       	ldd	r24, Y+3	; 0x03
     a3c:	0f 90       	pop	r0
     a3e:	0f 90       	pop	r0
     a40:	0f 90       	pop	r0
     a42:	df 91       	pop	r29
     a44:	cf 91       	pop	r28
     a46:	1f 91       	pop	r17
     a48:	0f 91       	pop	r16
     a4a:	08 95       	ret

00000a4c <_ZN10ACAN2517FD16receiveInterruptEv>:
     a4c:	2f 92       	push	r2
     a4e:	3f 92       	push	r3
     a50:	4f 92       	push	r4
     a52:	5f 92       	push	r5
     a54:	6f 92       	push	r6
     a56:	7f 92       	push	r7
     a58:	8f 92       	push	r8
     a5a:	9f 92       	push	r9
     a5c:	af 92       	push	r10
     a5e:	bf 92       	push	r11
     a60:	cf 92       	push	r12
     a62:	df 92       	push	r13
     a64:	ef 92       	push	r14
     a66:	ff 92       	push	r15
     a68:	0f 93       	push	r16
     a6a:	1f 93       	push	r17
     a6c:	cf 93       	push	r28
     a6e:	df 93       	push	r29
     a70:	cd b7       	in	r28, 0x3d	; 61
     a72:	de b7       	in	r29, 0x3e	; 62
     a74:	c3 59       	subi	r28, 0x93	; 147
     a76:	d1 09       	sbc	r29, r1
     a78:	0f b6       	in	r0, 0x3f	; 63
     a7a:	f8 94       	cli
     a7c:	de bf       	out	0x3e, r29	; 62
     a7e:	0f be       	out	0x3f, r0	; 63
     a80:	cd bf       	out	0x3d, r28	; 61
     a82:	3c 01       	movw	r6, r24
     a84:	64 e6       	ldi	r22, 0x64	; 100
     a86:	70 e0       	ldi	r23, 0x00	; 0
     a88:	0e 94 81 03 	call	0x702	; 0x702 <_ZN10ACAN2517FD36readRegister32Assume_SPI_transactionEj>
     a8c:	6b 01       	movw	r12, r22
     a8e:	ce 01       	movw	r24, r28
     a90:	85 5b       	subi	r24, 0xB5	; 181
     a92:	9f 4f       	sbci	r25, 0xFF	; 255
     a94:	0e 94 a1 01 	call	0x342	; 0x342 <_ZN12CANFDMessageC1Ev>
     a98:	fe 01       	movw	r30, r28
     a9a:	33 96       	adiw	r30, 0x03	; 3
     a9c:	88 e4       	ldi	r24, 0x48	; 72
     a9e:	df 01       	movw	r26, r30
     aa0:	1d 92       	st	X+, r1
     aa2:	8a 95       	dec	r24
     aa4:	e9 f7       	brne	.-6      	; 0xaa0 <_ZN10ACAN2517FD16receiveInterruptEv+0x54>
     aa6:	bc ef       	ldi	r27, 0xFC	; 252
     aa8:	db 1a       	sub	r13, r27
     aaa:	ef e0       	ldi	r30, 0x0F	; 15
     aac:	de 22       	and	r13, r30
     aae:	f0 e3       	ldi	r31, 0x30	; 48
     ab0:	df 2a       	or	r13, r31
     ab2:	d9 82       	std	Y+1, r13	; 0x01
     ab4:	ca 82       	std	Y+2, r12	; 0x02
     ab6:	c3 01       	movw	r24, r6
     ab8:	0e 94 c0 02 	call	0x580	; 0x580 <_ZN10ACAN2517FD8assertCSEv>
     abc:	6a e4       	ldi	r22, 0x4A	; 74
     abe:	70 e0       	ldi	r23, 0x00	; 0
     ac0:	ce 01       	movw	r24, r28
     ac2:	01 96       	adiw	r24, 0x01	; 1
     ac4:	0e 94 87 01 	call	0x30e	; 0x30e <_ZN8SPIClass8transferEPvj.part.5>
     ac8:	62 e0       	ldi	r22, 0x02	; 2
     aca:	ce 01       	movw	r24, r28
     acc:	01 96       	adiw	r24, 0x01	; 1
     ace:	0e 94 04 01 	call	0x208	; 0x208 <_ZL20u32FromBufferAtIndexPhh>
     ad2:	2f 96       	adiw	r28, 0x0f	; 15
     ad4:	6c af       	std	Y+60, r22	; 0x3c
     ad6:	7d af       	std	Y+61, r23	; 0x3d
     ad8:	8e af       	std	Y+62, r24	; 0x3e
     ada:	9f af       	std	Y+63, r25	; 0x3f
     adc:	2f 97       	sbiw	r28, 0x0f	; 15
     ade:	66 e0       	ldi	r22, 0x06	; 6
     ae0:	ce 01       	movw	r24, r28
     ae2:	01 96       	adiw	r24, 0x01	; 1
     ae4:	0e 94 04 01 	call	0x208	; 0x208 <_ZL20u32FromBufferAtIndexPhh>
     ae8:	4b 01       	movw	r8, r22
     aea:	5c 01       	movw	r10, r24
     aec:	dc 01       	movw	r26, r24
     aee:	cb 01       	movw	r24, r22
     af0:	8f 70       	andi	r24, 0x0F	; 15
     af2:	99 27       	eor	r25, r25
     af4:	aa 27       	eor	r26, r26
     af6:	bb 27       	eor	r27, r27
     af8:	8a 5a       	subi	r24, 0xAA	; 170
     afa:	9e 4f       	sbci	r25, 0xFE	; 254
     afc:	dc 01       	movw	r26, r24
     afe:	cc 90       	ld	r12, X
     b00:	63 96       	adiw	r28, 0x13	; 19
     b02:	cf ae       	std	Y+63, r12	; 0x3f
     b04:	63 97       	sbiw	r28, 0x13	; 19
     b06:	d1 2c       	mov	r13, r1
     b08:	b3 e0       	ldi	r27, 0x03	; 3
     b0a:	cb 0e       	add	r12, r27
     b0c:	d1 1c       	adc	r13, r1
     b0e:	d5 94       	asr	r13
     b10:	c7 94       	ror	r12
     b12:	d5 94       	asr	r13
     b14:	c7 94       	ror	r12
     b16:	0d 2c       	mov	r0, r13
     b18:	00 0c       	add	r0, r0
     b1a:	ee 08       	sbc	r14, r14
     b1c:	ff 08       	sbc	r15, r15
     b1e:	0b e4       	ldi	r16, 0x4B	; 75
     b20:	10 e0       	ldi	r17, 0x00	; 0
     b22:	0c 0f       	add	r16, r28
     b24:	1d 1f       	adc	r17, r29
     b26:	08 5f       	subi	r16, 0xF8	; 248
     b28:	1f 4f       	sbci	r17, 0xFF	; 255
     b2a:	ea e0       	ldi	r30, 0x0A	; 10
     b2c:	cd 56       	subi	r28, 0x6D	; 109
     b2e:	df 4f       	sbci	r29, 0xFF	; 255
     b30:	e8 83       	st	Y, r30
     b32:	c3 59       	subi	r28, 0x93	; 147
     b34:	d0 40       	sbci	r29, 0x00	; 0
     b36:	21 2c       	mov	r2, r1
     b38:	31 2c       	mov	r3, r1
     b3a:	21 01       	movw	r4, r2
     b3c:	2c 14       	cp	r2, r12
     b3e:	3d 04       	cpc	r3, r13
     b40:	4e 04       	cpc	r4, r14
     b42:	5f 04       	cpc	r5, r15
     b44:	00 f5       	brcc	.+64     	; 0xb86 <_ZN10ACAN2517FD16receiveInterruptEv+0x13a>
     b46:	cd 56       	subi	r28, 0x6D	; 109
     b48:	df 4f       	sbci	r29, 0xFF	; 255
     b4a:	68 81       	ld	r22, Y
     b4c:	c3 59       	subi	r28, 0x93	; 147
     b4e:	d0 40       	sbci	r29, 0x00	; 0
     b50:	ce 01       	movw	r24, r28
     b52:	01 96       	adiw	r24, 0x01	; 1
     b54:	0e 94 04 01 	call	0x208	; 0x208 <_ZL20u32FromBufferAtIndexPhh>
     b58:	d8 01       	movw	r26, r16
     b5a:	6d 93       	st	X+, r22
     b5c:	7d 93       	st	X+, r23
     b5e:	8d 93       	st	X+, r24
     b60:	9d 93       	st	X+, r25
     b62:	8d 01       	movw	r16, r26
     b64:	bf ef       	ldi	r27, 0xFF	; 255
     b66:	2b 1a       	sub	r2, r27
     b68:	3b 0a       	sbc	r3, r27
     b6a:	4b 0a       	sbc	r4, r27
     b6c:	5b 0a       	sbc	r5, r27
     b6e:	cd 56       	subi	r28, 0x6D	; 109
     b70:	df 4f       	sbci	r29, 0xFF	; 255
     b72:	e8 81       	ld	r30, Y
     b74:	c3 59       	subi	r28, 0x93	; 147
     b76:	d0 40       	sbci	r29, 0x00	; 0
     b78:	ec 5f       	subi	r30, 0xFC	; 252
     b7a:	cd 56       	subi	r28, 0x6D	; 109
     b7c:	df 4f       	sbci	r29, 0xFF	; 255
     b7e:	e8 83       	st	Y, r30
     b80:	c3 59       	subi	r28, 0x93	; 147
     b82:	d0 40       	sbci	r29, 0x00	; 0
     b84:	db cf       	rjmp	.-74     	; 0xb3c <_ZN10ACAN2517FD16receiveInterruptEv+0xf0>
     b86:	c3 01       	movw	r24, r6
     b88:	0e 94 cc 02 	call	0x598	; 0x598 <_ZN10ACAN2517FD10deassertCSEv>
     b8c:	41 e0       	ldi	r20, 0x01	; 1
     b8e:	6d e5       	ldi	r22, 0x5D	; 93
     b90:	70 e0       	ldi	r23, 0x00	; 0
     b92:	c3 01       	movw	r24, r6
     b94:	0e 94 60 03 	call	0x6c0	; 0x6c0 <_ZN10ACAN2517FD36writeRegister8Assume_SPI_transactionEjh>
     b98:	d5 01       	movw	r26, r10
     b9a:	c4 01       	movw	r24, r8
     b9c:	4b e0       	ldi	r20, 0x0B	; 11
     b9e:	b6 95       	lsr	r27
     ba0:	a7 95       	ror	r26
     ba2:	97 95       	ror	r25
     ba4:	87 95       	ror	r24
     ba6:	4a 95       	dec	r20
     ba8:	d1 f7       	brne	.-12     	; 0xb9e <_ZN10ACAN2517FD16receiveInterruptEv+0x152>
     baa:	8f 71       	andi	r24, 0x1F	; 31
     bac:	62 96       	adiw	r28, 0x12	; 18
     bae:	8f af       	std	Y+63, r24	; 0x3f
     bb0:	62 97       	sbiw	r28, 0x12	; 18
     bb2:	85 fe       	sbrs	r8, 5
     bb4:	7d c0       	rjmp	.+250    	; 0xcb0 <_ZN10ACAN2517FD16receiveInterruptEv+0x264>
     bb6:	61 96       	adiw	r28, 0x11	; 17
     bb8:	1f ae       	std	Y+63, r1	; 0x3f
     bba:	61 97       	sbiw	r28, 0x11	; 17
     bbc:	81 e0       	ldi	r24, 0x01	; 1
     bbe:	b5 01       	movw	r22, r10
     bc0:	a4 01       	movw	r20, r8
     bc2:	40 71       	andi	r20, 0x10	; 16
     bc4:	55 27       	eor	r21, r21
     bc6:	66 27       	eor	r22, r22
     bc8:	77 27       	eor	r23, r23
     bca:	84 fe       	sbrs	r8, 4
     bcc:	80 e0       	ldi	r24, 0x00	; 0
     bce:	60 96       	adiw	r28, 0x10	; 16
     bd0:	8f af       	std	Y+63, r24	; 0x3f
     bd2:	60 97       	sbiw	r28, 0x10	; 16
     bd4:	45 2b       	or	r20, r21
     bd6:	46 2b       	or	r20, r22
     bd8:	47 2b       	or	r20, r23
     bda:	31 f1       	breq	.+76     	; 0xc28 <_ZN10ACAN2517FD16receiveInterruptEv+0x1dc>
     bdc:	2f 96       	adiw	r28, 0x0f	; 15
     bde:	8c ad       	ldd	r24, Y+60	; 0x3c
     be0:	9d ad       	ldd	r25, Y+61	; 0x3d
     be2:	ae ad       	ldd	r26, Y+62	; 0x3e
     be4:	bf ad       	ldd	r27, Y+63	; 0x3f
     be6:	2f 97       	sbiw	r28, 0x0f	; 15
     be8:	ac 01       	movw	r20, r24
     bea:	bd 01       	movw	r22, r26
     bec:	2b e0       	ldi	r18, 0x0B	; 11
     bee:	76 95       	lsr	r23
     bf0:	67 95       	ror	r22
     bf2:	57 95       	ror	r21
     bf4:	47 95       	ror	r20
     bf6:	2a 95       	dec	r18
     bf8:	d1 f7       	brne	.-12     	; 0xbee <_ZN10ACAN2517FD16receiveInterruptEv+0x1a2>
     bfa:	63 70       	andi	r22, 0x03	; 3
     bfc:	77 27       	eor	r23, r23
     bfe:	32 e1       	ldi	r19, 0x12	; 18
     c00:	88 0f       	add	r24, r24
     c02:	99 1f       	adc	r25, r25
     c04:	aa 1f       	adc	r26, r26
     c06:	bb 1f       	adc	r27, r27
     c08:	3a 95       	dec	r19
     c0a:	d1 f7       	brne	.-12     	; 0xc00 <_ZN10ACAN2517FD16receiveInterruptEv+0x1b4>
     c0c:	88 27       	eor	r24, r24
     c0e:	99 27       	eor	r25, r25
     c10:	ac 7f       	andi	r26, 0xFC	; 252
     c12:	bf 71       	andi	r27, 0x1F	; 31
     c14:	84 2b       	or	r24, r20
     c16:	95 2b       	or	r25, r21
     c18:	a6 2b       	or	r26, r22
     c1a:	b7 2b       	or	r27, r23
     c1c:	2f 96       	adiw	r28, 0x0f	; 15
     c1e:	8c af       	std	Y+60, r24	; 0x3c
     c20:	9d af       	std	Y+61, r25	; 0x3d
     c22:	ae af       	std	Y+62, r26	; 0x3e
     c24:	bf af       	std	Y+63, r27	; 0x3f
     c26:	2f 97       	sbiw	r28, 0x0f	; 15
     c28:	be 01       	movw	r22, r28
     c2a:	65 5b       	subi	r22, 0xB5	; 181
     c2c:	7f 4f       	sbci	r23, 0xFF	; 255
     c2e:	c3 01       	movw	r24, r6
     c30:	41 96       	adiw	r24, 0x11	; 17
     c32:	0e 94 0f 02 	call	0x41e	; 0x41e <_ZN12ACANFDBuffer6appendERK12CANFDMessage>
     c36:	d3 01       	movw	r26, r6
     c38:	53 96       	adiw	r26, 0x13	; 19
     c3a:	4d 91       	ld	r20, X+
     c3c:	5d 91       	ld	r21, X+
     c3e:	6d 91       	ld	r22, X+
     c40:	7c 91       	ld	r23, X
     c42:	56 97       	sbiw	r26, 0x16	; 22
     c44:	5b 96       	adiw	r26, 0x1b	; 27
     c46:	8d 91       	ld	r24, X+
     c48:	9d 91       	ld	r25, X+
     c4a:	0d 90       	ld	r0, X+
     c4c:	bc 91       	ld	r27, X
     c4e:	a0 2d       	mov	r26, r0
     c50:	48 17       	cp	r20, r24
     c52:	59 07       	cpc	r21, r25
     c54:	6a 07       	cpc	r22, r26
     c56:	7b 07       	cpc	r23, r27
     c58:	89 f4       	brne	.+34     	; 0xc7c <_ZN10ACAN2517FD16receiveInterruptEv+0x230>
     c5a:	f3 01       	movw	r30, r6
     c5c:	12 86       	std	Z+10, r1	; 0x0a
     c5e:	87 81       	ldd	r24, Z+7	; 0x07
     c60:	8f 3f       	cpi	r24, 0xFF	; 255
     c62:	61 f0       	breq	.+24     	; 0xc7c <_ZN10ACAN2517FD16receiveInterruptEv+0x230>
     c64:	6e e1       	ldi	r22, 0x1E	; 30
     c66:	70 e0       	ldi	r23, 0x00	; 0
     c68:	c3 01       	movw	r24, r6
     c6a:	0e 94 04 05 	call	0xa08	; 0xa08 <_ZN10ACAN2517FD35readRegister8Assume_SPI_transactionEj>
     c6e:	48 2f       	mov	r20, r24
     c70:	4d 7f       	andi	r20, 0xFD	; 253
     c72:	6e e1       	ldi	r22, 0x1E	; 30
     c74:	70 e0       	ldi	r23, 0x00	; 0
     c76:	c3 01       	movw	r24, r6
     c78:	0e 94 60 03 	call	0x6c0	; 0x6c0 <_ZN10ACAN2517FD36writeRegister8Assume_SPI_transactionEjh>
     c7c:	cd 56       	subi	r28, 0x6D	; 109
     c7e:	df 4f       	sbci	r29, 0xFF	; 255
     c80:	0f b6       	in	r0, 0x3f	; 63
     c82:	f8 94       	cli
     c84:	de bf       	out	0x3e, r29	; 62
     c86:	0f be       	out	0x3f, r0	; 63
     c88:	cd bf       	out	0x3d, r28	; 61
     c8a:	df 91       	pop	r29
     c8c:	cf 91       	pop	r28
     c8e:	1f 91       	pop	r17
     c90:	0f 91       	pop	r16
     c92:	ff 90       	pop	r15
     c94:	ef 90       	pop	r14
     c96:	df 90       	pop	r13
     c98:	cf 90       	pop	r12
     c9a:	bf 90       	pop	r11
     c9c:	af 90       	pop	r10
     c9e:	9f 90       	pop	r9
     ca0:	8f 90       	pop	r8
     ca2:	7f 90       	pop	r7
     ca4:	6f 90       	pop	r6
     ca6:	5f 90       	pop	r5
     ca8:	4f 90       	pop	r4
     caa:	3f 90       	pop	r3
     cac:	2f 90       	pop	r2
     cae:	08 95       	ret
     cb0:	81 e0       	ldi	r24, 0x01	; 1
     cb2:	87 fe       	sbrs	r8, 7
     cb4:	03 c0       	rjmp	.+6      	; 0xcbc <_ZN10ACAN2517FD16receiveInterruptEv+0x270>
     cb6:	82 e0       	ldi	r24, 0x02	; 2
     cb8:	86 fc       	sbrc	r8, 6
     cba:	83 e0       	ldi	r24, 0x03	; 3
     cbc:	61 96       	adiw	r28, 0x11	; 17
     cbe:	8f af       	std	Y+63, r24	; 0x3f
     cc0:	61 97       	sbiw	r28, 0x11	; 17
     cc2:	7c cf       	rjmp	.-264    	; 0xbbc <_ZN10ACAN2517FD16receiveInterruptEv+0x170>

00000cc4 <_ZN10ACAN2517FD13isr_poll_coreEv>:
     cc4:	ef 92       	push	r14
     cc6:	ff 92       	push	r15
     cc8:	1f 93       	push	r17
     cca:	cf 93       	push	r28
     ccc:	df 93       	push	r29
     cce:	ec 01       	movw	r28, r24
     cd0:	8a 81       	ldd	r24, Y+2	; 0x02
     cd2:	9b 81       	ldd	r25, Y+3	; 0x03
     cd4:	0e 94 78 02 	call	0x4f0	; 0x4f0 <_ZN8SPIClass16beginTransactionE11SPISettings>
     cd8:	6c e1       	ldi	r22, 0x1C	; 28
     cda:	70 e0       	ldi	r23, 0x00	; 0
     cdc:	ce 01       	movw	r24, r28
     cde:	0e 94 df 04 	call	0x9be	; 0x9be <_ZN10ACAN2517FD36readRegister16Assume_SPI_transactionEj>
     ce2:	7c 01       	movw	r14, r24
     ce4:	1a 85       	ldd	r17, Y+10	; 0x0a
     ce6:	11 23       	and	r17, r17
     ce8:	29 f0       	breq	.+10     	; 0xcf4 <_ZN10ACAN2517FD13isr_poll_coreEv+0x30>
     cea:	81 ff       	sbrs	r24, 1
     cec:	10 c0       	rjmp	.+32     	; 0xd0e <_ZN10ACAN2517FD13isr_poll_coreEv+0x4a>
     cee:	ce 01       	movw	r24, r28
     cf0:	0e 94 26 05 	call	0xa4c	; 0xa4c <_ZN10ACAN2517FD16receiveInterruptEv>
     cf4:	f2 fe       	sbrs	r15, 2
     cf6:	0d c0       	rjmp	.+26     	; 0xd12 <_ZN10ACAN2517FD13isr_poll_coreEv+0x4e>
     cf8:	4f ee       	ldi	r20, 0xEF	; 239
     cfa:	6c e6       	ldi	r22, 0x6C	; 108
     cfc:	70 e0       	ldi	r23, 0x00	; 0
     cfe:	ce 01       	movw	r24, r28
     d00:	0e 94 60 03 	call	0x6c0	; 0x6c0 <_ZN10ACAN2517FD36writeRegister8Assume_SPI_transactionEjh>
     d04:	ce 01       	movw	r24, r28
     d06:	0e 94 a2 04 	call	0x944	; 0x944 <_ZN10ACAN2517FD17transmitInterruptEv>
     d0a:	11 e0       	ldi	r17, 0x01	; 1
     d0c:	04 c0       	rjmp	.+8      	; 0xd16 <_ZN10ACAN2517FD13isr_poll_coreEv+0x52>
     d0e:	10 e0       	ldi	r17, 0x00	; 0
     d10:	f1 cf       	rjmp	.-30     	; 0xcf4 <_ZN10ACAN2517FD13isr_poll_coreEv+0x30>
     d12:	e0 fc       	sbrc	r14, 0
     d14:	f7 cf       	rjmp	.-18     	; 0xd04 <_ZN10ACAN2517FD13isr_poll_coreEv+0x40>
     d16:	e2 fe       	sbrs	r14, 2
     d18:	07 c0       	rjmp	.+14     	; 0xd28 <_ZN10ACAN2517FD13isr_poll_coreEv+0x64>
     d1a:	4b ef       	ldi	r20, 0xFB	; 251
     d1c:	6c e1       	ldi	r22, 0x1C	; 28
     d1e:	70 e0       	ldi	r23, 0x00	; 0
     d20:	ce 01       	movw	r24, r28
     d22:	0e 94 60 03 	call	0x6c0	; 0x6c0 <_ZN10ACAN2517FD36writeRegister8Assume_SPI_transactionEjh>
     d26:	11 e0       	ldi	r17, 0x01	; 1
     d28:	e3 fe       	sbrs	r14, 3
     d2a:	07 c0       	rjmp	.+14     	; 0xd3a <_ZN10ACAN2517FD13isr_poll_coreEv+0x76>
     d2c:	47 ef       	ldi	r20, 0xF7	; 247
     d2e:	6c e1       	ldi	r22, 0x1C	; 28
     d30:	70 e0       	ldi	r23, 0x00	; 0
     d32:	ce 01       	movw	r24, r28
     d34:	0e 94 60 03 	call	0x6c0	; 0x6c0 <_ZN10ACAN2517FD36writeRegister8Assume_SPI_transactionEjh>
     d38:	11 e0       	ldi	r17, 0x01	; 1
     d3a:	f4 fe       	sbrs	r15, 4
     d3c:	07 c0       	rjmp	.+14     	; 0xd4c <_ZN10ACAN2517FD13isr_poll_coreEv+0x88>
     d3e:	4f ee       	ldi	r20, 0xEF	; 239
     d40:	6d e1       	ldi	r22, 0x1D	; 29
     d42:	70 e0       	ldi	r23, 0x00	; 0
     d44:	ce 01       	movw	r24, r28
     d46:	0e 94 60 03 	call	0x6c0	; 0x6c0 <_ZN10ACAN2517FD36writeRegister8Assume_SPI_transactionEjh>
     d4a:	11 e0       	ldi	r17, 0x01	; 1
     d4c:	f3 fc       	sbrc	r15, 3
     d4e:	09 c0       	rjmp	.+18     	; 0xd62 <_ZN10ACAN2517FD13isr_poll_coreEv+0x9e>
     d50:	11 11       	cpse	r17, r1
     d52:	c2 cf       	rjmp	.-124    	; 0xcd8 <_ZN10ACAN2517FD13isr_poll_coreEv+0x14>
     d54:	df 91       	pop	r29
     d56:	cf 91       	pop	r28
     d58:	1f 91       	pop	r17
     d5a:	ff 90       	pop	r15
     d5c:	ef 90       	pop	r14
     d5e:	0c 94 af 02 	jmp	0x55e	; 0x55e <_ZN8SPIClass14endTransactionEv>
     d62:	88 89       	ldd	r24, Y+16	; 0x10
     d64:	8f 3f       	cpi	r24, 0xFF	; 255
     d66:	11 f0       	breq	.+4      	; 0xd6c <_ZN10ACAN2517FD13isr_poll_coreEv+0xa8>
     d68:	8f 5f       	subi	r24, 0xFF	; 255
     d6a:	88 8b       	std	Y+16, r24	; 0x10
     d6c:	47 ef       	ldi	r20, 0xF7	; 247
     d6e:	60 e6       	ldi	r22, 0x60	; 96
     d70:	70 e0       	ldi	r23, 0x00	; 0
     d72:	ce 01       	movw	r24, r28
     d74:	0e 94 60 03 	call	0x6c0	; 0x6c0 <_ZN10ACAN2517FD36writeRegister8Assume_SPI_transactionEjh>
     d78:	af cf       	rjmp	.-162    	; 0xcd8 <_ZN10ACAN2517FD13isr_poll_coreEv+0x14>

00000d7a <_ZN10ACAN2517FD3isrEv>:
     d7a:	0c 94 62 06 	jmp	0xcc4	; 0xcc4 <_ZN10ACAN2517FD13isr_poll_coreEv>

00000d7e <_ZN10ACAN2517FD7receiveER12CANFDMessage>:
     d7e:	ef 92       	push	r14
     d80:	ff 92       	push	r15
     d82:	1f 93       	push	r17
     d84:	cf 93       	push	r28
     d86:	df 93       	push	r29
     d88:	ec 01       	movw	r28, r24
     d8a:	7b 01       	movw	r14, r22
     d8c:	8a 81       	ldd	r24, Y+2	; 0x02
     d8e:	9b 81       	ldd	r25, Y+3	; 0x03
     d90:	0e 94 78 02 	call	0x4f0	; 0x4f0 <_ZN8SPIClass16beginTransactionE11SPISettings>
     d94:	f8 94       	cli
     d96:	8b 8d       	ldd	r24, Y+27	; 0x1b
     d98:	9c 8d       	ldd	r25, Y+28	; 0x1c
     d9a:	ad 8d       	ldd	r26, Y+29	; 0x1d
     d9c:	be 8d       	ldd	r27, Y+30	; 0x1e
     d9e:	11 e0       	ldi	r17, 0x01	; 1
     da0:	00 97       	sbiw	r24, 0x00	; 0
     da2:	a1 05       	cpc	r26, r1
     da4:	b1 05       	cpc	r27, r1
     da6:	09 f4       	brne	.+2      	; 0xdaa <_ZN10ACAN2517FD7receiveER12CANFDMessage+0x2c>
     da8:	10 e0       	ldi	r17, 0x00	; 0
     daa:	89 2b       	or	r24, r25
     dac:	8a 2b       	or	r24, r26
     dae:	8b 2b       	or	r24, r27
     db0:	29 f0       	breq	.+10     	; 0xdbc <_ZN10ACAN2517FD7receiveER12CANFDMessage+0x3e>
     db2:	b7 01       	movw	r22, r14
     db4:	ce 01       	movw	r24, r28
     db6:	41 96       	adiw	r24, 0x11	; 17
     db8:	0e 94 4d 01 	call	0x29a	; 0x29a <_ZN12ACANFDBuffer6removeER12CANFDMessage.part.2>
     dbc:	8f 81       	ldd	r24, Y+7	; 0x07
     dbe:	8f 3f       	cpi	r24, 0xFF	; 255
     dc0:	79 f4       	brne	.+30     	; 0xde0 <_ZN10ACAN2517FD7receiveER12CANFDMessage+0x62>
     dc2:	81 e0       	ldi	r24, 0x01	; 1
     dc4:	8a 87       	std	Y+10, r24	; 0x0a
     dc6:	ce 01       	movw	r24, r28
     dc8:	0e 94 62 06 	call	0xcc4	; 0xcc4 <_ZN10ACAN2517FD13isr_poll_coreEv>
     dcc:	78 94       	sei
     dce:	0e 94 af 02 	call	0x55e	; 0x55e <_ZN8SPIClass14endTransactionEv>
     dd2:	81 2f       	mov	r24, r17
     dd4:	df 91       	pop	r29
     dd6:	cf 91       	pop	r28
     dd8:	1f 91       	pop	r17
     dda:	ff 90       	pop	r15
     ddc:	ef 90       	pop	r14
     dde:	08 95       	ret
     de0:	8a 85       	ldd	r24, Y+10	; 0x0a
     de2:	81 11       	cpse	r24, r1
     de4:	f3 cf       	rjmp	.-26     	; 0xdcc <_ZN10ACAN2517FD7receiveER12CANFDMessage+0x4e>
     de6:	81 e0       	ldi	r24, 0x01	; 1
     de8:	8a 87       	std	Y+10, r24	; 0x0a
     dea:	6e e1       	ldi	r22, 0x1E	; 30
     dec:	70 e0       	ldi	r23, 0x00	; 0
     dee:	ce 01       	movw	r24, r28
     df0:	0e 94 04 05 	call	0xa08	; 0xa08 <_ZN10ACAN2517FD35readRegister8Assume_SPI_transactionEj>
     df4:	48 2f       	mov	r20, r24
     df6:	42 60       	ori	r20, 0x02	; 2
     df8:	6e e1       	ldi	r22, 0x1E	; 30
     dfa:	70 e0       	ldi	r23, 0x00	; 0
     dfc:	ce 01       	movw	r24, r28
     dfe:	0e 94 60 03 	call	0x6c0	; 0x6c0 <_ZN10ACAN2517FD36writeRegister8Assume_SPI_transactionEjh>
     e02:	e4 cf       	rjmp	.-56     	; 0xdcc <_ZN10ACAN2517FD7receiveER12CANFDMessage+0x4e>

00000e04 <_ZN10ACAN2517FD14writeRegister8Ejh>:
     e04:	ff 92       	push	r15
     e06:	0f 93       	push	r16
     e08:	1f 93       	push	r17
     e0a:	cf 93       	push	r28
     e0c:	df 93       	push	r29
     e0e:	ec 01       	movw	r28, r24
     e10:	8b 01       	movw	r16, r22
     e12:	f4 2e       	mov	r15, r20
     e14:	8a 81       	ldd	r24, Y+2	; 0x02
     e16:	9b 81       	ldd	r25, Y+3	; 0x03
     e18:	0e 94 78 02 	call	0x4f0	; 0x4f0 <_ZN8SPIClass16beginTransactionE11SPISettings>
     e1c:	f8 94       	cli
     e1e:	4f 2d       	mov	r20, r15
     e20:	b8 01       	movw	r22, r16
     e22:	ce 01       	movw	r24, r28
     e24:	0e 94 60 03 	call	0x6c0	; 0x6c0 <_ZN10ACAN2517FD36writeRegister8Assume_SPI_transactionEjh>
     e28:	78 94       	sei
     e2a:	df 91       	pop	r29
     e2c:	cf 91       	pop	r28
     e2e:	1f 91       	pop	r17
     e30:	0f 91       	pop	r16
     e32:	ff 90       	pop	r15
     e34:	0c 94 af 02 	jmp	0x55e	; 0x55e <_ZN8SPIClass14endTransactionEv>

00000e38 <_ZN10ACAN2517FD13readRegister8Ej>:
     e38:	0f 93       	push	r16
     e3a:	1f 93       	push	r17
     e3c:	cf 93       	push	r28
     e3e:	df 93       	push	r29
     e40:	ec 01       	movw	r28, r24
     e42:	8b 01       	movw	r16, r22
     e44:	8a 81       	ldd	r24, Y+2	; 0x02
     e46:	9b 81       	ldd	r25, Y+3	; 0x03
     e48:	0e 94 78 02 	call	0x4f0	; 0x4f0 <_ZN8SPIClass16beginTransactionE11SPISettings>
     e4c:	f8 94       	cli
     e4e:	b8 01       	movw	r22, r16
     e50:	ce 01       	movw	r24, r28
     e52:	0e 94 04 05 	call	0xa08	; 0xa08 <_ZN10ACAN2517FD35readRegister8Assume_SPI_transactionEj>
     e56:	c8 2f       	mov	r28, r24
     e58:	78 94       	sei
     e5a:	0e 94 af 02 	call	0x55e	; 0x55e <_ZN8SPIClass14endTransactionEv>
     e5e:	8c 2f       	mov	r24, r28
     e60:	df 91       	pop	r29
     e62:	cf 91       	pop	r28
     e64:	1f 91       	pop	r17
     e66:	0f 91       	pop	r16
     e68:	08 95       	ret

00000e6a <_ZN10ACAN2517FD15writeRegister32Ejm>:
     e6a:	cf 92       	push	r12
     e6c:	df 92       	push	r13
     e6e:	ef 92       	push	r14
     e70:	ff 92       	push	r15
     e72:	0f 93       	push	r16
     e74:	1f 93       	push	r17
     e76:	cf 93       	push	r28
     e78:	df 93       	push	r29
     e7a:	ec 01       	movw	r28, r24
     e7c:	8b 01       	movw	r16, r22
     e7e:	69 01       	movw	r12, r18
     e80:	7a 01       	movw	r14, r20
     e82:	8a 81       	ldd	r24, Y+2	; 0x02
     e84:	9b 81       	ldd	r25, Y+3	; 0x03
     e86:	0e 94 78 02 	call	0x4f0	; 0x4f0 <_ZN8SPIClass16beginTransactionE11SPISettings>
     e8a:	f8 94       	cli
     e8c:	a7 01       	movw	r20, r14
     e8e:	96 01       	movw	r18, r12
     e90:	b8 01       	movw	r22, r16
     e92:	ce 01       	movw	r24, r28
     e94:	0e 94 2d 03 	call	0x65a	; 0x65a <_ZN10ACAN2517FD37writeRegister32Assume_SPI_transactionEjm>
     e98:	78 94       	sei
     e9a:	df 91       	pop	r29
     e9c:	cf 91       	pop	r28
     e9e:	1f 91       	pop	r17
     ea0:	0f 91       	pop	r16
     ea2:	ff 90       	pop	r15
     ea4:	ef 90       	pop	r14
     ea6:	df 90       	pop	r13
     ea8:	cf 90       	pop	r12
     eaa:	0c 94 af 02 	jmp	0x55e	; 0x55e <_ZN8SPIClass14endTransactionEv>

00000eae <_ZN10ACAN2517FD14readRegister32Ej>:
     eae:	cf 92       	push	r12
     eb0:	df 92       	push	r13
     eb2:	ef 92       	push	r14
     eb4:	ff 92       	push	r15
     eb6:	cf 93       	push	r28
     eb8:	df 93       	push	r29
     eba:	ec 01       	movw	r28, r24
     ebc:	7b 01       	movw	r14, r22
     ebe:	8a 81       	ldd	r24, Y+2	; 0x02
     ec0:	9b 81       	ldd	r25, Y+3	; 0x03
     ec2:	0e 94 78 02 	call	0x4f0	; 0x4f0 <_ZN8SPIClass16beginTransactionE11SPISettings>
     ec6:	f8 94       	cli
     ec8:	b7 01       	movw	r22, r14
     eca:	ce 01       	movw	r24, r28
     ecc:	0e 94 81 03 	call	0x702	; 0x702 <_ZN10ACAN2517FD36readRegister32Assume_SPI_transactionEj>
     ed0:	6b 01       	movw	r12, r22
     ed2:	7c 01       	movw	r14, r24
     ed4:	78 94       	sei
     ed6:	0e 94 af 02 	call	0x55e	; 0x55e <_ZN8SPIClass14endTransactionEv>
     eda:	c7 01       	movw	r24, r14
     edc:	b6 01       	movw	r22, r12
     ede:	df 91       	pop	r29
     ee0:	cf 91       	pop	r28
     ee2:	ff 90       	pop	r15
     ee4:	ef 90       	pop	r14
     ee6:	df 90       	pop	r13
     ee8:	cf 90       	pop	r12
     eea:	08 95       	ret

00000eec <_ZN10ACAN2517FD11reset2517FDEv>:
     eec:	cf 93       	push	r28
     eee:	df 93       	push	r29
     ef0:	ec 01       	movw	r28, r24
     ef2:	8a 81       	ldd	r24, Y+2	; 0x02
     ef4:	9b 81       	ldd	r25, Y+3	; 0x03
     ef6:	0e 94 78 02 	call	0x4f0	; 0x4f0 <_ZN8SPIClass16beginTransactionE11SPISettings>
     efa:	f8 94       	cli
     efc:	ce 01       	movw	r24, r28
     efe:	0e 94 c0 02 	call	0x580	; 0x580 <_ZN10ACAN2517FD8assertCSEv>
     f02:	90 e0       	ldi	r25, 0x00	; 0
     f04:	80 e0       	ldi	r24, 0x00	; 0
     f06:	0e 94 92 02 	call	0x524	; 0x524 <_ZN8SPIClass10transfer16Ej>
     f0a:	ce 01       	movw	r24, r28
     f0c:	0e 94 cc 02 	call	0x598	; 0x598 <_ZN10ACAN2517FD10deassertCSEv>
     f10:	78 94       	sei
     f12:	df 91       	pop	r29
     f14:	cf 91       	pop	r28
     f16:	0c 94 af 02 	jmp	0x55e	; 0x55e <_ZN8SPIClass14endTransactionEv>

00000f1a <_ZN10ACAN2517FD5beginERK18ACAN2517FDSettingsPFvvERK17ACAN2517FDFilters>:
     f1a:	2f 92       	push	r2
     f1c:	3f 92       	push	r3
     f1e:	4f 92       	push	r4
     f20:	5f 92       	push	r5
     f22:	6f 92       	push	r6
     f24:	7f 92       	push	r7
     f26:	8f 92       	push	r8
     f28:	9f 92       	push	r9
     f2a:	af 92       	push	r10
     f2c:	bf 92       	push	r11
     f2e:	cf 92       	push	r12
     f30:	df 92       	push	r13
     f32:	ef 92       	push	r14
     f34:	ff 92       	push	r15
     f36:	0f 93       	push	r16
     f38:	1f 93       	push	r17
     f3a:	cf 93       	push	r28
     f3c:	df 93       	push	r29
     f3e:	00 d0       	rcall	.+0      	; 0xf40 <_ZN10ACAN2517FD5beginERK18ACAN2517FDSettingsPFvvERK17ACAN2517FDFilters+0x26>
     f40:	1f 92       	push	r1
     f42:	cd b7       	in	r28, 0x3d	; 61
     f44:	de b7       	in	r29, 0x3e	; 62
     f46:	9b 83       	std	Y+3, r25	; 0x03
     f48:	8a 83       	std	Y+2, r24	; 0x02
     f4a:	8b 01       	movw	r16, r22
     f4c:	2a 01       	movw	r4, r20
     f4e:	39 01       	movw	r6, r18
     f50:	db 01       	movw	r26, r22
     f52:	53 96       	adiw	r26, 0x13	; 19
     f54:	8c 91       	ld	r24, X
     f56:	54 e0       	ldi	r21, 0x04	; 4
     f58:	c5 2e       	mov	r12, r21
     f5a:	d1 2c       	mov	r13, r1
     f5c:	e1 2c       	mov	r14, r1
     f5e:	f1 2c       	mov	r15, r1
     f60:	88 23       	and	r24, r24
     f62:	19 f0       	breq	.+6      	; 0xf6a <_ZN10ACAN2517FD5beginERK18ACAN2517FDSettingsPFvvERK17ACAN2517FDFilters+0x50>
     f64:	c1 2c       	mov	r12, r1
     f66:	d1 2c       	mov	r13, r1
     f68:	76 01       	movw	r14, r12
     f6a:	c8 01       	movw	r24, r16
     f6c:	0e 94 f7 0f 	call	0x1fee	; 0x1fee <_ZNK18ACAN2517FDSettings24CANBitSettingConsistencyEv>
     f70:	67 2b       	or	r22, r23
     f72:	68 2b       	or	r22, r24
     f74:	69 2b       	or	r22, r25
     f76:	11 f0       	breq	.+4      	; 0xf7c <_ZN10ACAN2517FD5beginERK18ACAN2517FDSettingsPFvvERK17ACAN2517FDFilters+0x62>
     f78:	68 94       	set
     f7a:	c3 f8       	bld	r12, 3
     f7c:	ea 81       	ldd	r30, Y+2	; 0x02
     f7e:	fb 81       	ldd	r31, Y+3	; 0x03
     f80:	87 81       	ldd	r24, Z+7	; 0x07
     f82:	82 30       	cpi	r24, 0x02	; 2
     f84:	09 f4       	brne	.+2      	; 0xf88 <_ZN10ACAN2517FD5beginERK18ACAN2517FDSettingsPFvvERK17ACAN2517FDFilters+0x6e>
     f86:	f2 c1       	rjmp	.+996    	; 0x136c <_ZN10ACAN2517FD5beginERK18ACAN2517FDSettingsPFvvERK17ACAN2517FDFilters+0x452>
     f88:	83 30       	cpi	r24, 0x03	; 3
     f8a:	09 f0       	breq	.+2      	; 0xf8e <_ZN10ACAN2517FD5beginERK18ACAN2517FDSettingsPFvvERK17ACAN2517FDFilters+0x74>
     f8c:	e5 c1       	rjmp	.+970    	; 0x1358 <_ZN10ACAN2517FD5beginERK18ACAN2517FDSettingsPFvvERK17ACAN2517FDFilters+0x43e>
     f8e:	e1 e0       	ldi	r30, 0x01	; 1
     f90:	e9 83       	std	Y+1, r30	; 0x01
     f92:	ed c1       	rjmp	.+986    	; 0x136e <_ZN10ACAN2517FD5beginERK18ACAN2517FDSettingsPFvvERK17ACAN2517FDFilters+0x454>
     f94:	68 94       	set
     f96:	e3 f8       	bld	r14, 3
     f98:	ff ef       	ldi	r31, 0xFF	; 255
     f9a:	f9 83       	std	Y+1, r31	; 0x01
     f9c:	ed c1       	rjmp	.+986    	; 0x1378 <_ZN10ACAN2517FD5beginERK18ACAN2517FDSettingsPFvvERK17ACAN2517FDFilters+0x45e>
     f9e:	81 32       	cpi	r24, 0x21	; 33
     fa0:	08 f4       	brcc	.+2      	; 0xfa4 <_ZN10ACAN2517FD5beginERK18ACAN2517FDSettingsPFvvERK17ACAN2517FDFilters+0x8a>
     fa2:	fe c1       	rjmp	.+1020   	; 0x13a0 <_ZN10ACAN2517FD5beginERK18ACAN2517FDSettingsPFvvERK17ACAN2517FDFilters+0x486>
     fa4:	68 94       	set
     fa6:	d1 f8       	bld	r13, 1
     fa8:	fb c1       	rjmp	.+1014   	; 0x13a0 <_ZN10ACAN2517FD5beginERK18ACAN2517FDSettingsPFvvERK17ACAN2517FDFilters+0x486>
     faa:	81 32       	cpi	r24, 0x21	; 33
     fac:	08 f4       	brcc	.+2      	; 0xfb0 <_ZN10ACAN2517FD5beginERK18ACAN2517FDSettingsPFvvERK17ACAN2517FDFilters+0x96>
     fae:	fe c1       	rjmp	.+1020   	; 0x13ac <_ZN10ACAN2517FD5beginERK18ACAN2517FDSettingsPFvvERK17ACAN2517FDFilters+0x492>
     fb0:	68 94       	set
     fb2:	d3 f8       	bld	r13, 3
     fb4:	fb c1       	rjmp	.+1014   	; 0x13ac <_ZN10ACAN2517FD5beginERK18ACAN2517FDSettingsPFvvERK17ACAN2517FDFilters+0x492>
     fb6:	c1 14       	cp	r12, r1
     fb8:	d1 04       	cpc	r13, r1
     fba:	e1 04       	cpc	r14, r1
     fbc:	f1 04       	cpc	r15, r1
     fbe:	09 f0       	breq	.+2      	; 0xfc2 <_ZN10ACAN2517FD5beginERK18ACAN2517FDSettingsPFvvERK17ACAN2517FDFilters+0xa8>
     fc0:	1b c2       	rjmp	.+1078   	; 0x13f8 <_ZN10ACAN2517FD5beginERK18ACAN2517FDSettingsPFvvERK17ACAN2517FDFilters+0x4de>
     fc2:	aa 81       	ldd	r26, Y+2	; 0x02
     fc4:	bb 81       	ldd	r27, Y+3	; 0x03
     fc6:	17 96       	adiw	r26, 0x07	; 7
     fc8:	8c 91       	ld	r24, X
     fca:	8f 3f       	cpi	r24, 0xFF	; 255
     fcc:	19 f0       	breq	.+6      	; 0xfd4 <_ZN10ACAN2517FD5beginERK18ACAN2517FDSettingsPFvvERK17ACAN2517FDFilters+0xba>
     fce:	62 e0       	ldi	r22, 0x02	; 2
     fd0:	0e 94 33 13 	call	0x2666	; 0x2666 <pinMode>
     fd4:	ea 81       	ldd	r30, Y+2	; 0x02
     fd6:	fb 81       	ldd	r31, Y+3	; 0x03
     fd8:	86 81       	ldd	r24, Z+6	; 0x06
     fda:	28 2f       	mov	r18, r24
     fdc:	30 e0       	ldi	r19, 0x00	; 0
     fde:	f9 01       	movw	r30, r18
     fe0:	e0 57       	subi	r30, 0x70	; 112
     fe2:	ff 4f       	sbci	r31, 0xFF	; 255
     fe4:	e4 91       	lpm	r30, Z
     fe6:	f0 e0       	ldi	r31, 0x00	; 0
     fe8:	ee 0f       	add	r30, r30
     fea:	ff 1f       	adc	r31, r31
     fec:	ec 55       	subi	r30, 0x5C	; 92
     fee:	ff 4f       	sbci	r31, 0xFF	; 255
     ff0:	45 91       	lpm	r20, Z+
     ff2:	54 91       	lpm	r21, Z
     ff4:	aa 81       	ldd	r26, Y+2	; 0x02
     ff6:	bb 81       	ldd	r27, Y+3	; 0x03
     ff8:	d6 96       	adiw	r26, 0x36	; 54
     ffa:	5c 93       	st	X, r21
     ffc:	4e 93       	st	-X, r20
     ffe:	d5 97       	sbiw	r26, 0x35	; 53
    1000:	f9 01       	movw	r30, r18
    1002:	e4 58       	subi	r30, 0x84	; 132
    1004:	ff 4f       	sbci	r31, 0xFF	; 255
    1006:	e4 91       	lpm	r30, Z
    1008:	d7 96       	adiw	r26, 0x37	; 55
    100a:	ec 93       	st	X, r30
    100c:	61 e0       	ldi	r22, 0x01	; 1
    100e:	0e 94 33 13 	call	0x2666	; 0x2666 <pinMode>
    1012:	82 e5       	ldi	r24, 0x52	; 82
    1014:	ea 81       	ldd	r30, Y+2	; 0x02
    1016:	fb 81       	ldd	r31, Y+3	; 0x03
    1018:	82 83       	std	Z+2, r24	; 0x02
    101a:	81 e0       	ldi	r24, 0x01	; 1
    101c:	83 83       	std	Z+3, r24	; 0x03
    101e:	0e 94 c3 12 	call	0x2586	; 0x2586 <millis>
    1022:	4b 01       	movw	r8, r22
    1024:	5c 01       	movw	r10, r24
    1026:	4c e0       	ldi	r20, 0x0C	; 12
    1028:	63 e0       	ldi	r22, 0x03	; 3
    102a:	70 e0       	ldi	r23, 0x00	; 0
    102c:	8a 81       	ldd	r24, Y+2	; 0x02
    102e:	9b 81       	ldd	r25, Y+3	; 0x03
    1030:	0e 94 02 07 	call	0xe04	; 0xe04 <_ZN10ACAN2517FD14writeRegister8Ejh>
    1034:	62 e0       	ldi	r22, 0x02	; 2
    1036:	70 e0       	ldi	r23, 0x00	; 0
    1038:	8a 81       	ldd	r24, Y+2	; 0x02
    103a:	9b 81       	ldd	r25, Y+3	; 0x03
    103c:	0e 94 1c 07 	call	0xe38	; 0xe38 <_ZN10ACAN2517FD13readRegister8Ej>
    1040:	90 e0       	ldi	r25, 0x00	; 0
    1042:	25 e0       	ldi	r18, 0x05	; 5
    1044:	95 95       	asr	r25
    1046:	87 95       	ror	r24
    1048:	2a 95       	dec	r18
    104a:	e1 f7       	brne	.-8      	; 0x1044 <_ZN10ACAN2517FD5beginERK18ACAN2517FDSettingsPFvvERK17ACAN2517FDFilters+0x12a>
    104c:	84 30       	cpi	r24, 0x04	; 4
    104e:	79 f0       	breq	.+30     	; 0x106e <_ZN10ACAN2517FD5beginERK18ACAN2517FDSettingsPFvvERK17ACAN2517FDFilters+0x154>
    1050:	0e 94 c3 12 	call	0x2586	; 0x2586 <millis>
    1054:	68 19       	sub	r22, r8
    1056:	79 09       	sbc	r23, r9
    1058:	8a 09       	sbc	r24, r10
    105a:	9b 09       	sbc	r25, r11
    105c:	63 30       	cpi	r22, 0x03	; 3
    105e:	71 05       	cpc	r23, r1
    1060:	81 05       	cpc	r24, r1
    1062:	91 05       	cpc	r25, r1
    1064:	00 f3       	brcs	.-64     	; 0x1026 <_ZN10ACAN2517FD5beginERK18ACAN2517FDSettingsPFvvERK17ACAN2517FDFilters+0x10c>
    1066:	c1 2c       	mov	r12, r1
    1068:	d1 2c       	mov	r13, r1
    106a:	76 01       	movw	r14, r12
    106c:	c3 94       	inc	r12
    106e:	8a 81       	ldd	r24, Y+2	; 0x02
    1070:	9b 81       	ldd	r25, Y+3	; 0x03
    1072:	0e 94 76 07 	call	0xeec	; 0xeec <_ZN10ACAN2517FD11reset2517FDEv>
    1076:	a0 e2       	ldi	r26, 0x20	; 32
    1078:	2a 2e       	mov	r2, r26
    107a:	31 2c       	mov	r3, r1
    107c:	81 2c       	mov	r8, r1
    107e:	91 2c       	mov	r9, r1
    1080:	54 01       	movw	r10, r8
    1082:	83 94       	inc	r8
    1084:	c1 14       	cp	r12, r1
    1086:	d1 04       	cpc	r13, r1
    1088:	e1 04       	cpc	r14, r1
    108a:	f1 04       	cpc	r15, r1
    108c:	09 f0       	breq	.+2      	; 0x1090 <_ZN10ACAN2517FD5beginERK18ACAN2517FDSettingsPFvvERK17ACAN2517FDFilters+0x176>
    108e:	b4 c1       	rjmp	.+872    	; 0x13f8 <_ZN10ACAN2517FD5beginERK18ACAN2517FDSettingsPFvvERK17ACAN2517FDFilters+0x4de>
    1090:	a5 01       	movw	r20, r10
    1092:	94 01       	movw	r18, r8
    1094:	60 e0       	ldi	r22, 0x00	; 0
    1096:	74 e0       	ldi	r23, 0x04	; 4
    1098:	8a 81       	ldd	r24, Y+2	; 0x02
    109a:	9b 81       	ldd	r25, Y+3	; 0x03
    109c:	0e 94 35 07 	call	0xe6a	; 0xe6a <_ZN10ACAN2517FD15writeRegister32Ejm>
    10a0:	60 e0       	ldi	r22, 0x00	; 0
    10a2:	74 e0       	ldi	r23, 0x04	; 4
    10a4:	8a 81       	ldd	r24, Y+2	; 0x02
    10a6:	9b 81       	ldd	r25, Y+3	; 0x03
    10a8:	0e 94 57 07 	call	0xeae	; 0xeae <_ZN10ACAN2517FD14readRegister32Ej>
    10ac:	68 15       	cp	r22, r8
    10ae:	79 05       	cpc	r23, r9
    10b0:	8a 05       	cpc	r24, r10
    10b2:	9b 05       	cpc	r25, r11
    10b4:	29 f0       	breq	.+10     	; 0x10c0 <_ZN10ACAN2517FD5beginERK18ACAN2517FDSettingsPFvvERK17ACAN2517FDFilters+0x1a6>
    10b6:	f2 e0       	ldi	r31, 0x02	; 2
    10b8:	cf 2e       	mov	r12, r31
    10ba:	d1 2c       	mov	r13, r1
    10bc:	e1 2c       	mov	r14, r1
    10be:	f1 2c       	mov	r15, r1
    10c0:	88 0c       	add	r8, r8
    10c2:	99 1c       	adc	r9, r9
    10c4:	aa 1c       	adc	r10, r10
    10c6:	bb 1c       	adc	r11, r11
    10c8:	f1 e0       	ldi	r31, 0x01	; 1
    10ca:	2f 1a       	sub	r2, r31
    10cc:	31 08       	sbc	r3, r1
    10ce:	d1 f6       	brne	.-76     	; 0x1084 <_ZN10ACAN2517FD5beginERK18ACAN2517FDSettingsPFvvERK17ACAN2517FDFilters+0x16a>
    10d0:	c1 14       	cp	r12, r1
    10d2:	d1 04       	cpc	r13, r1
    10d4:	e1 04       	cpc	r14, r1
    10d6:	f1 04       	cpc	r15, r1
    10d8:	09 f0       	breq	.+2      	; 0x10dc <_ZN10ACAN2517FD5beginERK18ACAN2517FDSettingsPFvvERK17ACAN2517FDFilters+0x1c2>
    10da:	8e c1       	rjmp	.+796    	; 0x13f8 <_ZN10ACAN2517FD5beginERK18ACAN2517FDSettingsPFvvERK17ACAN2517FDFilters+0x4de>
    10dc:	d8 01       	movw	r26, r16
    10de:	8c 91       	ld	r24, X
    10e0:	81 50       	subi	r24, 0x01	; 1
    10e2:	40 e0       	ldi	r20, 0x00	; 0
    10e4:	b1 2c       	mov	r11, r1
    10e6:	87 30       	cpi	r24, 0x07	; 7
    10e8:	48 f4       	brcc	.+18     	; 0x10fc <_ZN10ACAN2517FD5beginERK18ACAN2517FDSettingsPFvvERK17ACAN2517FDFilters+0x1e2>
    10ea:	90 e0       	ldi	r25, 0x00	; 0
    10ec:	fc 01       	movw	r30, r24
    10ee:	e1 5b       	subi	r30, 0xB1	; 177
    10f0:	fe 4f       	sbci	r31, 0xFE	; 254
    10f2:	b0 80       	ld	r11, Z
    10f4:	88 5b       	subi	r24, 0xB8	; 184
    10f6:	9e 4f       	sbci	r25, 0xFE	; 254
    10f8:	fc 01       	movw	r30, r24
    10fa:	40 81       	ld	r20, Z
    10fc:	4b 29       	or	r20, r11
    10fe:	d8 01       	movw	r26, r16
    1100:	58 96       	adiw	r26, 0x18	; 24
    1102:	8c 91       	ld	r24, X
    1104:	84 30       	cpi	r24, 0x04	; 4
    1106:	29 f0       	breq	.+10     	; 0x1112 <_ZN10ACAN2517FD5beginERK18ACAN2517FDSettingsPFvvERK17ACAN2517FDFilters+0x1f8>
    1108:	b0 e2       	ldi	r27, 0x20	; 32
    110a:	8b 9f       	mul	r24, r27
    110c:	c0 01       	movw	r24, r0
    110e:	11 24       	eor	r1, r1
    1110:	48 2b       	or	r20, r24
    1112:	60 e0       	ldi	r22, 0x00	; 0
    1114:	7e e0       	ldi	r23, 0x0E	; 14
    1116:	8a 81       	ldd	r24, Y+2	; 0x02
    1118:	9b 81       	ldd	r25, Y+3	; 0x03
    111a:	0e 94 02 07 	call	0xe04	; 0xe04 <_ZN10ACAN2517FD14writeRegister8Ejh>
    111e:	bb 20       	and	r11, r11
    1120:	09 f4       	brne	.+2      	; 0x1124 <_ZN10ACAN2517FD5beginERK18ACAN2517FDSettingsPFvvERK17ACAN2517FDFilters+0x20a>
    1122:	6a c1       	rjmp	.+724    	; 0x13f8 <_ZN10ACAN2517FD5beginERK18ACAN2517FDSettingsPFvvERK17ACAN2517FDFilters+0x4de>
    1124:	0e 94 c3 12 	call	0x2586	; 0x2586 <millis>
    1128:	4b 01       	movw	r8, r22
    112a:	5c 01       	movw	r10, r24
    112c:	61 e0       	ldi	r22, 0x01	; 1
    112e:	7e e0       	ldi	r23, 0x0E	; 14
    1130:	8a 81       	ldd	r24, Y+2	; 0x02
    1132:	9b 81       	ldd	r25, Y+3	; 0x03
    1134:	0e 94 1c 07 	call	0xe38	; 0xe38 <_ZN10ACAN2517FD13readRegister8Ej>
    1138:	28 2e       	mov	r2, r24
    113a:	20 94       	com	r2
    113c:	e2 2d       	mov	r30, r2
    113e:	e1 70       	andi	r30, 0x01	; 1
    1140:	2e 2e       	mov	r2, r30
    1142:	80 fd       	sbrc	r24, 0
    1144:	11 c0       	rjmp	.+34     	; 0x1168 <_ZN10ACAN2517FD5beginERK18ACAN2517FDSettingsPFvvERK17ACAN2517FDFilters+0x24e>
    1146:	0e 94 c3 12 	call	0x2586	; 0x2586 <millis>
    114a:	68 19       	sub	r22, r8
    114c:	79 09       	sbc	r23, r9
    114e:	8a 09       	sbc	r24, r10
    1150:	9b 09       	sbc	r25, r11
    1152:	63 30       	cpi	r22, 0x03	; 3
    1154:	71 05       	cpc	r23, r1
    1156:	81 05       	cpc	r24, r1
    1158:	91 05       	cpc	r25, r1
    115a:	30 f0       	brcs	.+12     	; 0x1168 <_ZN10ACAN2517FD5beginERK18ACAN2517FDSettingsPFvvERK17ACAN2517FDFilters+0x24e>
    115c:	c1 2c       	mov	r12, r1
    115e:	d1 2c       	mov	r13, r1
    1160:	72 e0       	ldi	r23, 0x02	; 2
    1162:	e7 2e       	mov	r14, r23
    1164:	f1 2c       	mov	r15, r1
    1166:	48 c1       	rjmp	.+656    	; 0x13f8 <_ZN10ACAN2517FD5beginERK18ACAN2517FDSettingsPFvvERK17ACAN2517FDFilters+0x4de>
    1168:	21 10       	cpse	r2, r1
    116a:	e0 cf       	rjmp	.-64     	; 0x112c <_ZN10ACAN2517FD5beginERK18ACAN2517FDSettingsPFvvERK17ACAN2517FDFilters+0x212>
    116c:	45 c1       	rjmp	.+650    	; 0x13f8 <_ZN10ACAN2517FD5beginERK18ACAN2517FDSettingsPFvvERK17ACAN2517FDFilters+0x4de>
    116e:	20 e0       	ldi	r18, 0x00	; 0
    1170:	30 e0       	ldi	r19, 0x00	; 0
    1172:	40 e0       	ldi	r20, 0x00	; 0
    1174:	52 e0       	ldi	r21, 0x02	; 2
    1176:	fc c1       	rjmp	.+1016   	; 0x1570 <_ZN10ACAN2517FD5beginERK18ACAN2517FDSettingsPFvvERK17ACAN2517FDFilters+0x656>
    1178:	43 e0       	ldi	r20, 0x03	; 3
    117a:	6e e1       	ldi	r22, 0x1E	; 30
    117c:	70 e0       	ldi	r23, 0x00	; 0
    117e:	8a 81       	ldd	r24, Y+2	; 0x02
    1180:	9b 81       	ldd	r25, Y+3	; 0x03
    1182:	0e 94 02 07 	call	0xe04	; 0xe04 <_ZN10ACAN2517FD14writeRegister8Ejh>
    1186:	44 e0       	ldi	r20, 0x04	; 4
    1188:	6f e1       	ldi	r22, 0x1F	; 31
    118a:	70 e0       	ldi	r23, 0x00	; 0
    118c:	8a 81       	ldd	r24, Y+2	; 0x02
    118e:	9b 81       	ldd	r25, Y+3	; 0x03
    1190:	0e 94 02 07 	call	0xe04	; 0xe04 <_ZN10ACAN2517FD14writeRegister8Ejh>
    1194:	d8 01       	movw	r26, r16
    1196:	1d 96       	adiw	r26, 0x0d	; 13
    1198:	8d 90       	ld	r8, X+
    119a:	9c 90       	ld	r9, X
    119c:	b1 e0       	ldi	r27, 0x01	; 1
    119e:	8b 1a       	sub	r8, r27
    11a0:	91 08       	sbc	r9, r1
    11a2:	b1 2c       	mov	r11, r1
    11a4:	a1 2c       	mov	r10, r1
    11a6:	ba 2c       	mov	r11, r10
    11a8:	a9 2c       	mov	r10, r9
    11aa:	98 2c       	mov	r9, r8
    11ac:	88 24       	eor	r8, r8
    11ae:	f8 01       	movw	r30, r16
    11b0:	87 85       	ldd	r24, Z+15	; 0x0f
    11b2:	90 89       	ldd	r25, Z+16	; 0x10
    11b4:	01 97       	sbiw	r24, 0x01	; 1
    11b6:	b0 e0       	ldi	r27, 0x00	; 0
    11b8:	a0 e0       	ldi	r26, 0x00	; 0
    11ba:	88 2a       	or	r8, r24
    11bc:	99 2a       	or	r9, r25
    11be:	aa 2a       	or	r10, r26
    11c0:	bb 2a       	or	r11, r27
    11c2:	ba 2c       	mov	r11, r10
    11c4:	a9 2c       	mov	r10, r9
    11c6:	98 2c       	mov	r9, r8
    11c8:	88 24       	eor	r8, r8
    11ca:	81 89       	ldd	r24, Z+17	; 0x11
    11cc:	81 50       	subi	r24, 0x01	; 1
    11ce:	99 0b       	sbc	r25, r25
    11d0:	09 2e       	mov	r0, r25
    11d2:	00 0c       	add	r0, r0
    11d4:	aa 0b       	sbc	r26, r26
    11d6:	bb 0b       	sbc	r27, r27
    11d8:	9c 01       	movw	r18, r24
    11da:	ad 01       	movw	r20, r26
    11dc:	28 29       	or	r18, r8
    11de:	39 29       	or	r19, r9
    11e0:	4a 29       	or	r20, r10
    11e2:	5b 29       	or	r21, r11
    11e4:	54 2f       	mov	r21, r20
    11e6:	43 2f       	mov	r20, r19
    11e8:	32 2f       	mov	r19, r18
    11ea:	22 27       	eor	r18, r18
    11ec:	82 89       	ldd	r24, Z+18	; 0x12
    11ee:	81 50       	subi	r24, 0x01	; 1
    11f0:	99 0b       	sbc	r25, r25
    11f2:	09 2e       	mov	r0, r25
    11f4:	00 0c       	add	r0, r0
    11f6:	aa 0b       	sbc	r26, r26
    11f8:	bb 0b       	sbc	r27, r27
    11fa:	28 2b       	or	r18, r24
    11fc:	39 2b       	or	r19, r25
    11fe:	4a 2b       	or	r20, r26
    1200:	5b 2b       	or	r21, r27
    1202:	64 e0       	ldi	r22, 0x04	; 4
    1204:	70 e0       	ldi	r23, 0x00	; 0
    1206:	8a 81       	ldd	r24, Y+2	; 0x02
    1208:	9b 81       	ldd	r25, Y+3	; 0x03
    120a:	0e 94 35 07 	call	0xe6a	; 0xe6a <_ZN10ACAN2517FD15writeRegister32Ejm>
    120e:	d8 01       	movw	r26, r16
    1210:	19 96       	adiw	r26, 0x09	; 9
    1212:	8c 91       	ld	r24, X
    1214:	91 e0       	ldi	r25, 0x01	; 1
    1216:	81 30       	cpi	r24, 0x01	; 1
    1218:	09 f4       	brne	.+2      	; 0x121c <_ZN10ACAN2517FD5beginERK18ACAN2517FDSettingsPFvvERK17ACAN2517FDFilters+0x302>
    121a:	90 e0       	ldi	r25, 0x00	; 0
    121c:	ea 81       	ldd	r30, Y+2	; 0x02
    121e:	fb 81       	ldd	r31, Y+3	; 0x03
    1220:	93 87       	std	Z+11, r25	; 0x0b
    1222:	81 30       	cpi	r24, 0x01	; 1
    1224:	09 f4       	brne	.+2      	; 0x1228 <_ZN10ACAN2517FD5beginERK18ACAN2517FDSettingsPFvvERK17ACAN2517FDFilters+0x30e>
    1226:	3f c0       	rjmp	.+126    	; 0x12a6 <_ZN10ACAN2517FD5beginERK18ACAN2517FDSettingsPFvvERK17ACAN2517FDFilters+0x38c>
    1228:	d8 01       	movw	r26, r16
    122a:	1d 96       	adiw	r26, 0x0d	; 13
    122c:	8d 90       	ld	r8, X+
    122e:	9c 90       	ld	r9, X
    1230:	b1 e0       	ldi	r27, 0x01	; 1
    1232:	8b 1a       	sub	r8, r27
    1234:	91 08       	sbc	r9, r1
    1236:	b1 2c       	mov	r11, r1
    1238:	a1 2c       	mov	r10, r1
    123a:	ba 2c       	mov	r11, r10
    123c:	a9 2c       	mov	r10, r9
    123e:	98 2c       	mov	r9, r8
    1240:	88 24       	eor	r8, r8
    1242:	f8 01       	movw	r30, r16
    1244:	82 85       	ldd	r24, Z+10	; 0x0a
    1246:	81 50       	subi	r24, 0x01	; 1
    1248:	99 0b       	sbc	r25, r25
    124a:	09 2e       	mov	r0, r25
    124c:	00 0c       	add	r0, r0
    124e:	aa 0b       	sbc	r26, r26
    1250:	bb 0b       	sbc	r27, r27
    1252:	88 2a       	or	r8, r24
    1254:	99 2a       	or	r9, r25
    1256:	aa 2a       	or	r10, r26
    1258:	bb 2a       	or	r11, r27
    125a:	ba 2c       	mov	r11, r10
    125c:	a9 2c       	mov	r10, r9
    125e:	98 2c       	mov	r9, r8
    1260:	88 24       	eor	r8, r8
    1262:	83 85       	ldd	r24, Z+11	; 0x0b
    1264:	81 50       	subi	r24, 0x01	; 1
    1266:	99 0b       	sbc	r25, r25
    1268:	09 2e       	mov	r0, r25
    126a:	00 0c       	add	r0, r0
    126c:	aa 0b       	sbc	r26, r26
    126e:	bb 0b       	sbc	r27, r27
    1270:	9c 01       	movw	r18, r24
    1272:	ad 01       	movw	r20, r26
    1274:	28 29       	or	r18, r8
    1276:	39 29       	or	r19, r9
    1278:	4a 29       	or	r20, r10
    127a:	5b 29       	or	r21, r11
    127c:	54 2f       	mov	r21, r20
    127e:	43 2f       	mov	r20, r19
    1280:	32 2f       	mov	r19, r18
    1282:	22 27       	eor	r18, r18
    1284:	84 85       	ldd	r24, Z+12	; 0x0c
    1286:	81 50       	subi	r24, 0x01	; 1
    1288:	99 0b       	sbc	r25, r25
    128a:	09 2e       	mov	r0, r25
    128c:	00 0c       	add	r0, r0
    128e:	aa 0b       	sbc	r26, r26
    1290:	bb 0b       	sbc	r27, r27
    1292:	28 2b       	or	r18, r24
    1294:	39 2b       	or	r19, r25
    1296:	4a 2b       	or	r20, r26
    1298:	5b 2b       	or	r21, r27
    129a:	68 e0       	ldi	r22, 0x08	; 8
    129c:	70 e0       	ldi	r23, 0x00	; 0
    129e:	8a 81       	ldd	r24, Y+2	; 0x02
    12a0:	9b 81       	ldd	r25, Y+3	; 0x03
    12a2:	0e 94 35 07 	call	0xe6a	; 0xe6a <_ZN10ACAN2517FD15writeRegister32Ejm>
    12a6:	d8 01       	movw	r26, r16
    12a8:	59 96       	adiw	r26, 0x19	; 25
    12aa:	4c 91       	ld	r20, X
    12ac:	ea 81       	ldd	r30, Y+2	; 0x02
    12ae:	fb 81       	ldd	r31, Y+3	; 0x03
    12b0:	47 87       	std	Z+15, r20	; 0x0f
    12b2:	63 e0       	ldi	r22, 0x03	; 3
    12b4:	70 e0       	ldi	r23, 0x00	; 0
    12b6:	cf 01       	movw	r24, r30
    12b8:	0e 94 02 07 	call	0xe04	; 0xe04 <_ZN10ACAN2517FD14writeRegister8Ejh>
    12bc:	0e 94 c3 12 	call	0x2586	; 0x2586 <millis>
    12c0:	4b 01       	movw	r8, r22
    12c2:	5c 01       	movw	r10, r24
    12c4:	62 e0       	ldi	r22, 0x02	; 2
    12c6:	70 e0       	ldi	r23, 0x00	; 0
    12c8:	8a 81       	ldd	r24, Y+2	; 0x02
    12ca:	9b 81       	ldd	r25, Y+3	; 0x03
    12cc:	0e 94 1c 07 	call	0xe38	; 0xe38 <_ZN10ACAN2517FD13readRegister8Ej>
    12d0:	82 95       	swap	r24
    12d2:	86 95       	lsr	r24
    12d4:	87 70       	andi	r24, 0x07	; 7
    12d6:	d8 01       	movw	r26, r16
    12d8:	59 96       	adiw	r26, 0x19	; 25
    12da:	9c 91       	ld	r25, X
    12dc:	89 17       	cp	r24, r25
    12de:	79 f0       	breq	.+30     	; 0x12fe <_ZN10ACAN2517FD5beginERK18ACAN2517FDSettingsPFvvERK17ACAN2517FDFilters+0x3e4>
    12e0:	0e 94 c3 12 	call	0x2586	; 0x2586 <millis>
    12e4:	68 19       	sub	r22, r8
    12e6:	79 09       	sbc	r23, r9
    12e8:	8a 09       	sbc	r24, r10
    12ea:	9b 09       	sbc	r25, r11
    12ec:	6b 30       	cpi	r22, 0x0B	; 11
    12ee:	71 05       	cpc	r23, r1
    12f0:	81 05       	cpc	r24, r1
    12f2:	91 05       	cpc	r25, r1
    12f4:	38 f3       	brcs	.-50     	; 0x12c4 <_ZN10ACAN2517FD5beginERK18ACAN2517FDSettingsPFvvERK17ACAN2517FDFilters+0x3aa>
    12f6:	c1 2c       	mov	r12, r1
    12f8:	d1 2c       	mov	r13, r1
    12fa:	76 01       	movw	r14, r12
    12fc:	e3 94       	inc	r14
    12fe:	ea 81       	ldd	r30, Y+2	; 0x02
    1300:	fb 81       	ldd	r31, Y+3	; 0x03
    1302:	87 81       	ldd	r24, Z+7	; 0x07
    1304:	8f 3f       	cpi	r24, 0xFF	; 255
    1306:	49 f0       	breq	.+18     	; 0x131a <_ZN10ACAN2517FD5beginERK18ACAN2517FDSettingsPFvvERK17ACAN2517FDFilters+0x400>
    1308:	50 e0       	ldi	r21, 0x00	; 0
    130a:	40 e0       	ldi	r20, 0x00	; 0
    130c:	b2 01       	movw	r22, r4
    130e:	89 81       	ldd	r24, Y+1	; 0x01
    1310:	0e 94 9e 13 	call	0x273c	; 0x273c <attachInterrupt>
    1314:	89 81       	ldd	r24, Y+1	; 0x01
    1316:	0e 94 ed 10 	call	0x21da	; 0x21da <_ZN8SPIClass14usingInterruptEh>
    131a:	aa 81       	ldd	r26, Y+2	; 0x02
    131c:	bb 81       	ldd	r27, Y+3	; 0x03
    131e:	19 96       	adiw	r26, 0x09	; 9
    1320:	1c 92       	st	X, r1
    1322:	19 97       	sbiw	r26, 0x09	; 9
    1324:	50 96       	adiw	r26, 0x10	; 16
    1326:	1c 92       	st	X, r1
    1328:	c7 01       	movw	r24, r14
    132a:	b6 01       	movw	r22, r12
    132c:	0f 90       	pop	r0
    132e:	0f 90       	pop	r0
    1330:	0f 90       	pop	r0
    1332:	df 91       	pop	r29
    1334:	cf 91       	pop	r28
    1336:	1f 91       	pop	r17
    1338:	0f 91       	pop	r16
    133a:	ff 90       	pop	r15
    133c:	ef 90       	pop	r14
    133e:	df 90       	pop	r13
    1340:	cf 90       	pop	r12
    1342:	bf 90       	pop	r11
    1344:	af 90       	pop	r10
    1346:	9f 90       	pop	r9
    1348:	8f 90       	pop	r8
    134a:	7f 90       	pop	r7
    134c:	6f 90       	pop	r6
    134e:	5f 90       	pop	r5
    1350:	4f 90       	pop	r4
    1352:	3f 90       	pop	r3
    1354:	2f 90       	pop	r2
    1356:	08 95       	ret
    1358:	8f 3f       	cpi	r24, 0xFF	; 255
    135a:	09 f0       	breq	.+2      	; 0x135e <_ZN10ACAN2517FD5beginERK18ACAN2517FDSettingsPFvvERK17ACAN2517FDFilters+0x444>
    135c:	e9 c1       	rjmp	.+978    	; 0x1730 <_ZN10ACAN2517FD5beginERK18ACAN2517FDSettingsPFvvERK17ACAN2517FDFilters+0x816>
    135e:	41 14       	cp	r4, r1
    1360:	51 04       	cpc	r5, r1
    1362:	09 f0       	breq	.+2      	; 0x1366 <_ZN10ACAN2517FD5beginERK18ACAN2517FDSettingsPFvvERK17ACAN2517FDFilters+0x44c>
    1364:	17 ce       	rjmp	.-978    	; 0xf94 <_ZN10ACAN2517FD5beginERK18ACAN2517FDSettingsPFvvERK17ACAN2517FDFilters+0x7a>
    1366:	bf ef       	ldi	r27, 0xFF	; 255
    1368:	b9 83       	std	Y+1, r27	; 0x01
    136a:	06 c0       	rjmp	.+12     	; 0x1378 <_ZN10ACAN2517FD5beginERK18ACAN2517FDSettingsPFvvERK17ACAN2517FDFilters+0x45e>
    136c:	19 82       	std	Y+1, r1	; 0x01
    136e:	41 14       	cp	r4, r1
    1370:	51 04       	cpc	r5, r1
    1372:	11 f4       	brne	.+4      	; 0x1378 <_ZN10ACAN2517FD5beginERK18ACAN2517FDSettingsPFvvERK17ACAN2517FDFilters+0x45e>
    1374:	68 94       	set
    1376:	c5 f8       	bld	r12, 5
    1378:	d8 01       	movw	r26, r16
    137a:	90 96       	adiw	r26, 0x20	; 32
    137c:	8c 91       	ld	r24, X
    137e:	81 32       	cpi	r24, 0x21	; 33
    1380:	10 f0       	brcs	.+4      	; 0x1386 <_ZN10ACAN2517FD5beginERK18ACAN2517FDSettingsPFvvERK17ACAN2517FDFilters+0x46c>
    1382:	68 94       	set
    1384:	d7 f8       	bld	r13, 7
    1386:	f8 01       	movw	r30, r16
    1388:	82 a1       	ldd	r24, Z+34	; 0x22
    138a:	80 32       	cpi	r24, 0x20	; 32
    138c:	10 f0       	brcs	.+4      	; 0x1392 <_ZN10ACAN2517FD5beginERK18ACAN2517FDSettingsPFvvERK17ACAN2517FDFilters+0x478>
    138e:	68 94       	set
    1390:	d5 f8       	bld	r13, 5
    1392:	d8 01       	movw	r26, r16
    1394:	97 96       	adiw	r26, 0x27	; 39
    1396:	8c 91       	ld	r24, X
    1398:	81 11       	cpse	r24, r1
    139a:	01 ce       	rjmp	.-1022   	; 0xf9e <_ZN10ACAN2517FD5beginERK18ACAN2517FDSettingsPFvvERK17ACAN2517FDFilters+0x84>
    139c:	68 94       	set
    139e:	d0 f8       	bld	r13, 0
    13a0:	f8 01       	movw	r30, r16
    13a2:	84 8d       	ldd	r24, Z+28	; 0x1c
    13a4:	81 11       	cpse	r24, r1
    13a6:	01 ce       	rjmp	.-1022   	; 0xfaa <_ZN10ACAN2517FD5beginERK18ACAN2517FDSettingsPFvvERK17ACAN2517FDFilters+0x90>
    13a8:	68 94       	set
    13aa:	d2 f8       	bld	r13, 2
    13ac:	d8 01       	movw	r26, r16
    13ae:	5e 96       	adiw	r26, 0x1e	; 30
    13b0:	8c 91       	ld	r24, X
    13b2:	80 32       	cpi	r24, 0x20	; 32
    13b4:	10 f0       	brcs	.+4      	; 0x13ba <_ZN10ACAN2517FD5beginERK18ACAN2517FDSettingsPFvvERK17ACAN2517FDFilters+0x4a0>
    13b6:	68 94       	set
    13b8:	d6 f8       	bld	r13, 6
    13ba:	c8 01       	movw	r24, r16
    13bc:	0e 94 7c 10 	call	0x20f8	; 0x20f8 <_ZNK18ACAN2517FDSettings8ramUsageEv>
    13c0:	61 30       	cpi	r22, 0x01	; 1
    13c2:	78 40       	sbci	r23, 0x08	; 8
    13c4:	81 05       	cpc	r24, r1
    13c6:	91 05       	cpc	r25, r1
    13c8:	10 f0       	brcs	.+4      	; 0x13ce <_ZN10ACAN2517FD5beginERK18ACAN2517FDSettingsPFvvERK17ACAN2517FDFilters+0x4b4>
    13ca:	68 94       	set
    13cc:	d4 f8       	bld	r13, 4
    13ce:	f3 01       	movw	r30, r6
    13d0:	80 81       	ld	r24, Z
    13d2:	81 32       	cpi	r24, 0x21	; 33
    13d4:	10 f0       	brcs	.+4      	; 0x13da <_ZN10ACAN2517FD5beginERK18ACAN2517FDSettingsPFvvERK17ACAN2517FDFilters+0x4c0>
    13d6:	68 94       	set
    13d8:	c7 f8       	bld	r12, 7
    13da:	d3 01       	movw	r26, r6
    13dc:	15 96       	adiw	r26, 0x05	; 5
    13de:	8d 91       	ld	r24, X+
    13e0:	9c 91       	ld	r25, X
    13e2:	89 2b       	or	r24, r25
    13e4:	11 f0       	breq	.+4      	; 0x13ea <_ZN10ACAN2517FD5beginERK18ACAN2517FDSettingsPFvvERK17ACAN2517FDFilters+0x4d0>
    13e6:	68 94       	set
    13e8:	c6 f8       	bld	r12, 6
    13ea:	f8 01       	movw	r30, r16
    13ec:	84 89       	ldd	r24, Z+20	; 0x14
    13ee:	80 5c       	subi	r24, 0xC0	; 192
    13f0:	87 ff       	sbrs	r24, 7
    13f2:	e1 cd       	rjmp	.-1086   	; 0xfb6 <_ZN10ACAN2517FD5beginERK18ACAN2517FDSettingsPFvvERK17ACAN2517FDFilters+0x9c>
    13f4:	68 94       	set
    13f6:	e4 f8       	bld	r14, 4
    13f8:	d8 01       	movw	r26, r16
    13fa:	11 96       	adiw	r26, 0x01	; 1
    13fc:	6d 91       	ld	r22, X+
    13fe:	7d 91       	ld	r23, X+
    1400:	8d 91       	ld	r24, X+
    1402:	9c 91       	ld	r25, X
    1404:	14 97       	sbiw	r26, 0x04	; 4
    1406:	66 0f       	add	r22, r22
    1408:	77 1f       	adc	r23, r23
    140a:	88 1f       	adc	r24, r24
    140c:	99 1f       	adc	r25, r25
    140e:	25 e0       	ldi	r18, 0x05	; 5
    1410:	30 e0       	ldi	r19, 0x00	; 0
    1412:	40 e0       	ldi	r20, 0x00	; 0
    1414:	50 e0       	ldi	r21, 0x00	; 0
    1416:	0e 94 d4 1b 	call	0x37a8	; 0x37a8 <__udivmodsi4>
    141a:	81 2c       	mov	r8, r1
    141c:	62 e1       	ldi	r22, 0x12	; 18
    141e:	96 2e       	mov	r9, r22
    1420:	6a e7       	ldi	r22, 0x7A	; 122
    1422:	a6 2e       	mov	r10, r22
    1424:	b1 2c       	mov	r11, r1
    1426:	80 e0       	ldi	r24, 0x00	; 0
    1428:	28 15       	cp	r18, r8
    142a:	39 05       	cpc	r19, r9
    142c:	4a 05       	cpc	r20, r10
    142e:	5b 05       	cpc	r21, r11
    1430:	40 f4       	brcc	.+16     	; 0x1442 <_ZN10ACAN2517FD5beginERK18ACAN2517FDSettingsPFvvERK17ACAN2517FDFilters+0x528>
    1432:	b6 94       	lsr	r11
    1434:	a7 94       	ror	r10
    1436:	97 94       	ror	r9
    1438:	87 94       	ror	r8
    143a:	8f 5f       	subi	r24, 0xFF	; 255
    143c:	86 30       	cpi	r24, 0x06	; 6
    143e:	a1 f7       	brne	.-24     	; 0x1428 <_ZN10ACAN2517FD5beginERK18ACAN2517FDSettingsPFvvERK17ACAN2517FDFilters+0x50e>
    1440:	87 e0       	ldi	r24, 0x07	; 7
    1442:	98 2f       	mov	r25, r24
    1444:	90 6a       	ori	r25, 0xA0	; 160
    1446:	96 95       	lsr	r25
    1448:	ea 81       	ldd	r30, Y+2	; 0x02
    144a:	fb 81       	ldd	r31, Y+3	; 0x03
    144c:	92 83       	std	Z+2, r25	; 0x02
    144e:	80 95       	com	r24
    1450:	81 70       	andi	r24, 0x01	; 1
    1452:	83 83       	std	Z+3, r24	; 0x03
    1454:	a0 e2       	ldi	r26, 0x20	; 32
    1456:	2a 2e       	mov	r2, r26
    1458:	31 2c       	mov	r3, r1
    145a:	81 2c       	mov	r8, r1
    145c:	91 2c       	mov	r9, r1
    145e:	54 01       	movw	r10, r8
    1460:	83 94       	inc	r8
    1462:	c1 14       	cp	r12, r1
    1464:	d1 04       	cpc	r13, r1
    1466:	e1 04       	cpc	r14, r1
    1468:	f1 04       	cpc	r15, r1
    146a:	09 f0       	breq	.+2      	; 0x146e <_ZN10ACAN2517FD5beginERK18ACAN2517FDSettingsPFvvERK17ACAN2517FDFilters+0x554>
    146c:	5d cf       	rjmp	.-326    	; 0x1328 <_ZN10ACAN2517FD5beginERK18ACAN2517FDSettingsPFvvERK17ACAN2517FDFilters+0x40e>
    146e:	a5 01       	movw	r20, r10
    1470:	94 01       	movw	r18, r8
    1472:	60 e0       	ldi	r22, 0x00	; 0
    1474:	74 e0       	ldi	r23, 0x04	; 4
    1476:	8a 81       	ldd	r24, Y+2	; 0x02
    1478:	9b 81       	ldd	r25, Y+3	; 0x03
    147a:	0e 94 35 07 	call	0xe6a	; 0xe6a <_ZN10ACAN2517FD15writeRegister32Ejm>
    147e:	60 e0       	ldi	r22, 0x00	; 0
    1480:	74 e0       	ldi	r23, 0x04	; 4
    1482:	8a 81       	ldd	r24, Y+2	; 0x02
    1484:	9b 81       	ldd	r25, Y+3	; 0x03
    1486:	0e 94 57 07 	call	0xeae	; 0xeae <_ZN10ACAN2517FD14readRegister32Ej>
    148a:	68 15       	cp	r22, r8
    148c:	79 05       	cpc	r23, r9
    148e:	8a 05       	cpc	r24, r10
    1490:	9b 05       	cpc	r25, r11
    1492:	29 f0       	breq	.+10     	; 0x149e <_ZN10ACAN2517FD5beginERK18ACAN2517FDSettingsPFvvERK17ACAN2517FDFilters+0x584>
    1494:	c1 2c       	mov	r12, r1
    1496:	d1 2c       	mov	r13, r1
    1498:	f4 e0       	ldi	r31, 0x04	; 4
    149a:	ef 2e       	mov	r14, r31
    149c:	f1 2c       	mov	r15, r1
    149e:	88 0c       	add	r8, r8
    14a0:	99 1c       	adc	r9, r9
    14a2:	aa 1c       	adc	r10, r10
    14a4:	bb 1c       	adc	r11, r11
    14a6:	f1 e0       	ldi	r31, 0x01	; 1
    14a8:	2f 1a       	sub	r2, r31
    14aa:	31 08       	sbc	r3, r1
    14ac:	d1 f6       	brne	.-76     	; 0x1462 <_ZN10ACAN2517FD5beginERK18ACAN2517FDSettingsPFvvERK17ACAN2517FDFilters+0x548>
    14ae:	c1 14       	cp	r12, r1
    14b0:	d1 04       	cpc	r13, r1
    14b2:	e1 04       	cpc	r14, r1
    14b4:	f1 04       	cpc	r15, r1
    14b6:	09 f0       	breq	.+2      	; 0x14ba <_ZN10ACAN2517FD5beginERK18ACAN2517FDSettingsPFvvERK17ACAN2517FDFilters+0x5a0>
    14b8:	37 cf       	rjmp	.-402    	; 0x1328 <_ZN10ACAN2517FD5beginERK18ACAN2517FDSettingsPFvvERK17ACAN2517FDFilters+0x40e>
    14ba:	d8 01       	movw	r26, r16
    14bc:	5a 96       	adiw	r26, 0x1a	; 26
    14be:	4d 91       	ld	r20, X+
    14c0:	5c 91       	ld	r21, X
    14c2:	70 e0       	ldi	r23, 0x00	; 0
    14c4:	60 e0       	ldi	r22, 0x00	; 0
    14c6:	8a 81       	ldd	r24, Y+2	; 0x02
    14c8:	9b 81       	ldd	r25, Y+3	; 0x03
    14ca:	83 96       	adiw	r24, 0x23	; 35
    14cc:	0e 94 b4 01 	call	0x368	; 0x368 <_ZN12ACANFDBuffer12initWithSizeEm>
    14d0:	f8 01       	movw	r30, r16
    14d2:	44 a1       	ldd	r20, Z+36	; 0x24
    14d4:	55 a1       	ldd	r21, Z+37	; 0x25
    14d6:	70 e0       	ldi	r23, 0x00	; 0
    14d8:	60 e0       	ldi	r22, 0x00	; 0
    14da:	8a 81       	ldd	r24, Y+2	; 0x02
    14dc:	9b 81       	ldd	r25, Y+3	; 0x03
    14de:	41 96       	adiw	r24, 0x11	; 17
    14e0:	0e 94 b4 01 	call	0x368	; 0x368 <_ZN12ACANFDBuffer12initWithSizeEm>
    14e4:	a1 2c       	mov	r10, r1
    14e6:	74 e0       	ldi	r23, 0x04	; 4
    14e8:	b7 2e       	mov	r11, r23
    14ea:	20 e0       	ldi	r18, 0x00	; 0
    14ec:	30 e0       	ldi	r19, 0x00	; 0
    14ee:	a9 01       	movw	r20, r18
    14f0:	b5 01       	movw	r22, r10
    14f2:	8a 81       	ldd	r24, Y+2	; 0x02
    14f4:	9b 81       	ldd	r25, Y+3	; 0x03
    14f6:	0e 94 35 07 	call	0xe6a	; 0xe6a <_ZN10ACAN2517FD15writeRegister32Ejm>
    14fa:	f4 e0       	ldi	r31, 0x04	; 4
    14fc:	af 0e       	add	r10, r31
    14fe:	b1 1c       	adc	r11, r1
    1500:	a1 14       	cp	r10, r1
    1502:	2c e0       	ldi	r18, 0x0C	; 12
    1504:	b2 06       	cpc	r11, r18
    1506:	89 f7       	brne	.-30     	; 0x14ea <_ZN10ACAN2517FD5beginERK18ACAN2517FDSettingsPFvvERK17ACAN2517FDFilters+0x5d0>
    1508:	d8 01       	movw	r26, r16
    150a:	58 96       	adiw	r26, 0x18	; 24
    150c:	8c 91       	ld	r24, X
    150e:	43 e2       	ldi	r20, 0x23	; 35
    1510:	84 30       	cpi	r24, 0x04	; 4
    1512:	09 f0       	breq	.+2      	; 0x1516 <_ZN10ACAN2517FD5beginERK18ACAN2517FDSettingsPFvvERK17ACAN2517FDFilters+0x5fc>
    1514:	43 e0       	ldi	r20, 0x03	; 3
    1516:	f8 01       	movw	r30, r16
    1518:	85 89       	ldd	r24, Z+21	; 0x15
    151a:	81 11       	cpse	r24, r1
    151c:	40 61       	ori	r20, 0x10	; 16
    151e:	d8 01       	movw	r26, r16
    1520:	56 96       	adiw	r26, 0x16	; 22
    1522:	8c 91       	ld	r24, X
    1524:	81 11       	cpse	r24, r1
    1526:	40 64       	ori	r20, 0x40	; 64
    1528:	67 e0       	ldi	r22, 0x07	; 7
    152a:	7e e0       	ldi	r23, 0x0E	; 14
    152c:	8a 81       	ldd	r24, Y+2	; 0x02
    152e:	9b 81       	ldd	r25, Y+3	; 0x03
    1530:	0e 94 02 07 	call	0xe04	; 0xe04 <_ZN10ACAN2517FD14writeRegister8Ejh>
    1534:	f8 01       	movw	r30, r16
    1536:	87 89       	ldd	r24, Z+23	; 0x17
    1538:	40 e6       	ldi	r20, 0x60	; 96
    153a:	81 11       	cpse	r24, r1
    153c:	01 c0       	rjmp	.+2      	; 0x1540 <_ZN10ACAN2517FD5beginERK18ACAN2517FDSettingsPFvvERK17ACAN2517FDFilters+0x626>
    153e:	40 e4       	ldi	r20, 0x40	; 64
    1540:	70 e0       	ldi	r23, 0x00	; 0
    1542:	60 e0       	ldi	r22, 0x00	; 0
    1544:	8a 81       	ldd	r24, Y+2	; 0x02
    1546:	9b 81       	ldd	r25, Y+3	; 0x03
    1548:	0e 94 02 07 	call	0xe04	; 0xe04 <_ZN10ACAN2517FD14writeRegister8Ejh>
    154c:	d8 01       	movw	r26, r16
    154e:	54 96       	adiw	r26, 0x14	; 20
    1550:	2c 91       	ld	r18, X
    1552:	22 23       	and	r18, r18
    1554:	09 f4       	brne	.+2      	; 0x1558 <_ZN10ACAN2517FD5beginERK18ACAN2517FDSettingsPFvvERK17ACAN2517FDFilters+0x63e>
    1556:	0b ce       	rjmp	.-1002   	; 0x116e <_ZN10ACAN2517FD5beginERK18ACAN2517FDSettingsPFvvERK17ACAN2517FDFilters+0x254>
    1558:	2f 77       	andi	r18, 0x7F	; 127
    155a:	02 2e       	mov	r0, r18
    155c:	00 0c       	add	r0, r0
    155e:	33 0b       	sbc	r19, r19
    1560:	44 0b       	sbc	r20, r20
    1562:	55 0b       	sbc	r21, r21
    1564:	54 2f       	mov	r21, r20
    1566:	43 2f       	mov	r20, r19
    1568:	32 2f       	mov	r19, r18
    156a:	22 27       	eor	r18, r18
    156c:	42 60       	ori	r20, 0x02	; 2
    156e:	52 60       	ori	r21, 0x02	; 2
    1570:	6c e0       	ldi	r22, 0x0C	; 12
    1572:	70 e0       	ldi	r23, 0x00	; 0
    1574:	8a 81       	ldd	r24, Y+2	; 0x02
    1576:	9b 81       	ldd	r25, Y+3	; 0x03
    1578:	0e 94 35 07 	call	0xe6a	; 0xe6a <_ZN10ACAN2517FD15writeRegister32Ejm>
    157c:	f8 01       	movw	r30, r16
    157e:	43 a1       	ldd	r20, Z+35	; 0x23
    1580:	42 95       	swap	r20
    1582:	44 0f       	add	r20, r20
    1584:	40 7e       	andi	r20, 0xE0	; 224
    1586:	82 a1       	ldd	r24, Z+34	; 0x22
    1588:	48 2b       	or	r20, r24
    158a:	62 e5       	ldi	r22, 0x52	; 82
    158c:	70 e0       	ldi	r23, 0x00	; 0
    158e:	8a 81       	ldd	r24, Y+2	; 0x02
    1590:	9b 81       	ldd	r25, Y+3	; 0x03
    1592:	0e 94 02 07 	call	0xe04	; 0xe04 <_ZN10ACAN2517FD14writeRegister8Ejh>
    1596:	d8 01       	movw	r26, r16
    1598:	90 96       	adiw	r26, 0x20	; 32
    159a:	8c 91       	ld	r24, X
    159c:	91 e0       	ldi	r25, 0x01	; 1
    159e:	81 11       	cpse	r24, r1
    15a0:	01 c0       	rjmp	.+2      	; 0x15a4 <_ZN10ACAN2517FD5beginERK18ACAN2517FDSettingsPFvvERK17ACAN2517FDFilters+0x68a>
    15a2:	90 e0       	ldi	r25, 0x00	; 0
    15a4:	ea 81       	ldd	r30, Y+2	; 0x02
    15a6:	fb 81       	ldd	r31, Y+3	; 0x03
    15a8:	90 87       	std	Z+8, r25	; 0x08
    15aa:	d8 01       	movw	r26, r16
    15ac:	91 96       	adiw	r26, 0x21	; 33
    15ae:	4c 91       	ld	r20, X
    15b0:	b0 e2       	ldi	r27, 0x20	; 32
    15b2:	4b 9f       	mul	r20, r27
    15b4:	a0 01       	movw	r20, r0
    15b6:	11 24       	eor	r1, r1
    15b8:	81 50       	subi	r24, 0x01	; 1
    15ba:	48 2b       	or	r20, r24
    15bc:	63 e5       	ldi	r22, 0x53	; 83
    15be:	70 e0       	ldi	r23, 0x00	; 0
    15c0:	cf 01       	movw	r24, r30
    15c2:	0e 94 02 07 	call	0xe04	; 0xe04 <_ZN10ACAN2517FD14writeRegister8Ejh>
    15c6:	f8 01       	movw	r30, r16
    15c8:	81 a1       	ldd	r24, Z+33	; 0x21
    15ca:	0e 94 ae 10 	call	0x215c	; 0x215c <_ZN18ACAN2517FDSettings20objectSizeForPayloadENS_11PayloadSizeE>
    15ce:	aa 81       	ldd	r26, Y+2	; 0x02
    15d0:	bb 81       	ldd	r27, Y+3	; 0x03
    15d2:	1d 96       	adiw	r26, 0x0d	; 13
    15d4:	6c 93       	st	X, r22
    15d6:	1d 97       	sbiw	r26, 0x0d	; 13
    15d8:	18 96       	adiw	r26, 0x08	; 8
    15da:	8c 91       	ld	r24, X
    15dc:	40 e0       	ldi	r20, 0x00	; 0
    15de:	81 11       	cpse	r24, r1
    15e0:	40 e1       	ldi	r20, 0x10	; 16
    15e2:	41 60       	ori	r20, 0x01	; 1
    15e4:	62 e0       	ldi	r22, 0x02	; 2
    15e6:	70 e0       	ldi	r23, 0x00	; 0
    15e8:	8a 81       	ldd	r24, Y+2	; 0x02
    15ea:	9b 81       	ldd	r25, Y+3	; 0x03
    15ec:	0e 94 02 07 	call	0xe04	; 0xe04 <_ZN10ACAN2517FD14writeRegister8Ejh>
    15f0:	f8 01       	movw	r30, r16
    15f2:	46 a1       	ldd	r20, Z+38	; 0x26
    15f4:	f0 e2       	ldi	r31, 0x20	; 32
    15f6:	4f 9f       	mul	r20, r31
    15f8:	c0 01       	movw	r24, r0
    15fa:	11 24       	eor	r1, r1
    15fc:	d8 01       	movw	r26, r16
    15fe:	97 96       	adiw	r26, 0x27	; 39
    1600:	4c 91       	ld	r20, X
    1602:	41 50       	subi	r20, 0x01	; 1
    1604:	48 2b       	or	r20, r24
    1606:	6f e5       	ldi	r22, 0x5F	; 95
    1608:	70 e0       	ldi	r23, 0x00	; 0
    160a:	8a 81       	ldd	r24, Y+2	; 0x02
    160c:	9b 81       	ldd	r25, Y+3	; 0x03
    160e:	0e 94 02 07 	call	0xe04	; 0xe04 <_ZN10ACAN2517FD14writeRegister8Ejh>
    1612:	49 e0       	ldi	r20, 0x09	; 9
    1614:	6c e5       	ldi	r22, 0x5C	; 92
    1616:	70 e0       	ldi	r23, 0x00	; 0
    1618:	8a 81       	ldd	r24, Y+2	; 0x02
    161a:	9b 81       	ldd	r25, Y+3	; 0x03
    161c:	0e 94 02 07 	call	0xe04	; 0xe04 <_ZN10ACAN2517FD14writeRegister8Ejh>
    1620:	f8 01       	movw	r30, r16
    1622:	86 a1       	ldd	r24, Z+38	; 0x26
    1624:	0e 94 ae 10 	call	0x215c	; 0x215c <_ZN18ACAN2517FDSettings20objectSizeForPayloadENS_11PayloadSizeE>
    1628:	aa 81       	ldd	r26, Y+2	; 0x02
    162a:	bb 81       	ldd	r27, Y+3	; 0x03
    162c:	1e 96       	adiw	r26, 0x0e	; 14
    162e:	6c 93       	st	X, r22
    1630:	1e 97       	sbiw	r26, 0x0e	; 14
    1632:	f8 01       	movw	r30, r16
    1634:	47 8d       	ldd	r20, Z+31	; 0x1f
    1636:	42 95       	swap	r20
    1638:	44 0f       	add	r20, r20
    163a:	40 7e       	andi	r20, 0xE0	; 224
    163c:	86 8d       	ldd	r24, Z+30	; 0x1e
    163e:	48 2b       	or	r20, r24
    1640:	6a e6       	ldi	r22, 0x6A	; 106
    1642:	70 e0       	ldi	r23, 0x00	; 0
    1644:	cd 01       	movw	r24, r26
    1646:	0e 94 02 07 	call	0xe04	; 0xe04 <_ZN10ACAN2517FD14writeRegister8Ejh>
    164a:	d8 01       	movw	r26, r16
    164c:	5d 96       	adiw	r26, 0x1d	; 29
    164e:	4c 91       	ld	r20, X
    1650:	b0 e2       	ldi	r27, 0x20	; 32
    1652:	4b 9f       	mul	r20, r27
    1654:	c0 01       	movw	r24, r0
    1656:	11 24       	eor	r1, r1
    1658:	f8 01       	movw	r30, r16
    165a:	44 8d       	ldd	r20, Z+28	; 0x1c
    165c:	41 50       	subi	r20, 0x01	; 1
    165e:	48 2b       	or	r20, r24
    1660:	6b e6       	ldi	r22, 0x6B	; 107
    1662:	70 e0       	ldi	r23, 0x00	; 0
    1664:	8a 81       	ldd	r24, Y+2	; 0x02
    1666:	9b 81       	ldd	r25, Y+3	; 0x03
    1668:	0e 94 02 07 	call	0xe04	; 0xe04 <_ZN10ACAN2517FD14writeRegister8Ejh>
    166c:	40 e9       	ldi	r20, 0x90	; 144
    166e:	68 e6       	ldi	r22, 0x68	; 104
    1670:	70 e0       	ldi	r23, 0x00	; 0
    1672:	8a 81       	ldd	r24, Y+2	; 0x02
    1674:	9b 81       	ldd	r25, Y+3	; 0x03
    1676:	0e 94 02 07 	call	0xe04	; 0xe04 <_ZN10ACAN2517FD14writeRegister8Ejh>
    167a:	d8 01       	movw	r26, r16
    167c:	5d 96       	adiw	r26, 0x1d	; 29
    167e:	8c 91       	ld	r24, X
    1680:	0e 94 ae 10 	call	0x215c	; 0x215c <_ZN18ACAN2517FDSettings20objectSizeForPayloadENS_11PayloadSizeE>
    1684:	ea 81       	ldd	r30, Y+2	; 0x02
    1686:	fb 81       	ldd	r31, Y+3	; 0x03
    1688:	64 87       	std	Z+12, r22	; 0x0c
    168a:	d3 01       	movw	r26, r6
    168c:	11 96       	adiw	r26, 0x01	; 1
    168e:	ad 90       	ld	r10, X+
    1690:	bc 90       	ld	r11, X
    1692:	12 97       	sbiw	r26, 0x02	; 2
    1694:	8c 91       	ld	r24, X
    1696:	90 e0       	ldi	r25, 0x00	; 0
    1698:	88 0f       	add	r24, r24
    169a:	99 1f       	adc	r25, r25
    169c:	0e 94 c1 15 	call	0x2b82	; 0x2b82 <_Znaj>
    16a0:	ea 81       	ldd	r30, Y+2	; 0x02
    16a2:	fb 81       	ldd	r31, Y+3	; 0x03
    16a4:	91 83       	std	Z+1, r25	; 0x01
    16a6:	80 83       	st	Z, r24
    16a8:	21 2c       	mov	r2, r1
    16aa:	a1 14       	cp	r10, r1
    16ac:	b1 04       	cpc	r11, r1
    16ae:	09 f4       	brne	.+2      	; 0x16b2 <_ZN10ACAN2517FD5beginERK18ACAN2517FDSettingsPFvvERK17ACAN2517FDFilters+0x798>
    16b0:	63 cd       	rjmp	.-1338   	; 0x1178 <_ZN10ACAN2517FD5beginERK18ACAN2517FDSettingsPFvvERK17ACAN2517FDFilters+0x25e>
    16b2:	d5 01       	movw	r26, r10
    16b4:	1a 96       	adiw	r26, 0x0a	; 10
    16b6:	4d 91       	ld	r20, X+
    16b8:	5c 91       	ld	r21, X
    16ba:	82 2c       	mov	r8, r2
    16bc:	91 2c       	mov	r9, r1
    16be:	94 01       	movw	r18, r8
    16c0:	22 0f       	add	r18, r18
    16c2:	33 1f       	adc	r19, r19
    16c4:	ea 81       	ldd	r30, Y+2	; 0x02
    16c6:	fb 81       	ldd	r31, Y+3	; 0x03
    16c8:	80 81       	ld	r24, Z
    16ca:	91 81       	ldd	r25, Z+1	; 0x01
    16cc:	82 0f       	add	r24, r18
    16ce:	93 1f       	adc	r25, r19
    16d0:	dc 01       	movw	r26, r24
    16d2:	4d 93       	st	X+, r20
    16d4:	5c 93       	st	X, r21
    16d6:	34 01       	movw	r6, r8
    16d8:	93 e0       	ldi	r25, 0x03	; 3
    16da:	66 0c       	add	r6, r6
    16dc:	77 1c       	adc	r7, r7
    16de:	9a 95       	dec	r25
    16e0:	e1 f7       	brne	.-8      	; 0x16da <_ZN10ACAN2517FD5beginERK18ACAN2517FDSettingsPFvvERK17ACAN2517FDFilters+0x7c0>
    16e2:	f5 01       	movw	r30, r10
    16e4:	22 81       	ldd	r18, Z+2	; 0x02
    16e6:	33 81       	ldd	r19, Z+3	; 0x03
    16e8:	44 81       	ldd	r20, Z+4	; 0x04
    16ea:	55 81       	ldd	r21, Z+5	; 0x05
    16ec:	b3 01       	movw	r22, r6
    16ee:	6c 50       	subi	r22, 0x0C	; 12
    16f0:	7e 4f       	sbci	r23, 0xFE	; 254
    16f2:	8a 81       	ldd	r24, Y+2	; 0x02
    16f4:	9b 81       	ldd	r25, Y+3	; 0x03
    16f6:	0e 94 35 07 	call	0xe6a	; 0xe6a <_ZN10ACAN2517FD15writeRegister32Ejm>
    16fa:	d5 01       	movw	r26, r10
    16fc:	16 96       	adiw	r26, 0x06	; 6
    16fe:	2d 91       	ld	r18, X+
    1700:	3d 91       	ld	r19, X+
    1702:	4d 91       	ld	r20, X+
    1704:	5c 91       	ld	r21, X
    1706:	19 97       	sbiw	r26, 0x09	; 9
    1708:	b3 01       	movw	r22, r6
    170a:	60 51       	subi	r22, 0x10	; 16
    170c:	7e 4f       	sbci	r23, 0xFE	; 254
    170e:	8a 81       	ldd	r24, Y+2	; 0x02
    1710:	9b 81       	ldd	r25, Y+3	; 0x03
    1712:	0e 94 35 07 	call	0xe6a	; 0xe6a <_ZN10ACAN2517FD15writeRegister32Ejm>
    1716:	b4 01       	movw	r22, r8
    1718:	60 53       	subi	r22, 0x30	; 48
    171a:	7e 4f       	sbci	r23, 0xFE	; 254
    171c:	41 e8       	ldi	r20, 0x81	; 129
    171e:	8a 81       	ldd	r24, Y+2	; 0x02
    1720:	9b 81       	ldd	r25, Y+3	; 0x03
    1722:	0e 94 02 07 	call	0xe04	; 0xe04 <_ZN10ACAN2517FD14writeRegister8Ejh>
    1726:	f5 01       	movw	r30, r10
    1728:	a0 80       	ld	r10, Z
    172a:	b1 80       	ldd	r11, Z+1	; 0x01
    172c:	23 94       	inc	r2
    172e:	bd cf       	rjmp	.-134    	; 0x16aa <_ZN10ACAN2517FD5beginERK18ACAN2517FDSettingsPFvvERK17ACAN2517FDFilters+0x790>
    1730:	ff ef       	ldi	r31, 0xFF	; 255
    1732:	f9 83       	std	Y+1, r31	; 0x01
    1734:	80 e1       	ldi	r24, 0x10	; 16
    1736:	c8 2e       	mov	r12, r24
    1738:	d1 2c       	mov	r13, r1
    173a:	e1 2c       	mov	r14, r1
    173c:	f1 2c       	mov	r15, r1
    173e:	17 ce       	rjmp	.-978    	; 0x136e <_ZN10ACAN2517FD5beginERK18ACAN2517FDSettingsPFvvERK17ACAN2517FDFilters+0x454>

00001740 <_ZN10ACAN2517FD5beginERK18ACAN2517FDSettingsPFvvE>:
    1740:	cf 92       	push	r12
    1742:	df 92       	push	r13
    1744:	ef 92       	push	r14
    1746:	ff 92       	push	r15
    1748:	0f 93       	push	r16
    174a:	1f 93       	push	r17
    174c:	cf 93       	push	r28
    174e:	df 93       	push	r29
    1750:	cd b7       	in	r28, 0x3d	; 61
    1752:	de b7       	in	r29, 0x3e	; 62
    1754:	28 97       	sbiw	r28, 0x08	; 8
    1756:	0f b6       	in	r0, 0x3f	; 63
    1758:	f8 94       	cli
    175a:	de bf       	out	0x3e, r29	; 62
    175c:	0f be       	out	0x3f, r0	; 63
    175e:	cd bf       	out	0x3d, r28	; 61
    1760:	8c 01       	movw	r16, r24
    1762:	7b 01       	movw	r14, r22
    1764:	6a 01       	movw	r12, r20
    1766:	19 82       	std	Y+1, r1	; 0x01
    1768:	1b 82       	std	Y+3, r1	; 0x03
    176a:	1a 82       	std	Y+2, r1	; 0x02
    176c:	1d 82       	std	Y+5, r1	; 0x05
    176e:	1c 82       	std	Y+4, r1	; 0x04
    1770:	1f 82       	std	Y+7, r1	; 0x07
    1772:	1e 82       	std	Y+6, r1	; 0x06
    1774:	18 86       	std	Y+8, r1	; 0x08
    1776:	8c e0       	ldi	r24, 0x0C	; 12
    1778:	90 e0       	ldi	r25, 0x00	; 0
    177a:	0e 94 bf 15 	call	0x2b7e	; 0x2b7e <_Znwj>
    177e:	fc 01       	movw	r30, r24
    1780:	11 82       	std	Z+1, r1	; 0x01
    1782:	10 82       	st	Z, r1
    1784:	12 82       	std	Z+2, r1	; 0x02
    1786:	13 82       	std	Z+3, r1	; 0x03
    1788:	14 82       	std	Z+4, r1	; 0x04
    178a:	15 82       	std	Z+5, r1	; 0x05
    178c:	16 82       	std	Z+6, r1	; 0x06
    178e:	17 82       	std	Z+7, r1	; 0x07
    1790:	10 86       	std	Z+8, r1	; 0x08
    1792:	11 86       	std	Z+9, r1	; 0x09
    1794:	13 86       	std	Z+11, r1	; 0x0b
    1796:	12 86       	std	Z+10, r1	; 0x0a
    1798:	8a 81       	ldd	r24, Y+2	; 0x02
    179a:	9b 81       	ldd	r25, Y+3	; 0x03
    179c:	89 2b       	or	r24, r25
    179e:	e9 f4       	brne	.+58     	; 0x17da <_ZN10ACAN2517FD5beginERK18ACAN2517FDSettingsPFvvE+0x9a>
    17a0:	fb 83       	std	Y+3, r31	; 0x03
    17a2:	ea 83       	std	Y+2, r30	; 0x02
    17a4:	fd 83       	std	Y+5, r31	; 0x05
    17a6:	ec 83       	std	Y+4, r30	; 0x04
    17a8:	89 81       	ldd	r24, Y+1	; 0x01
    17aa:	8f 5f       	subi	r24, 0xFF	; 255
    17ac:	89 83       	std	Y+1, r24	; 0x01
    17ae:	9e 01       	movw	r18, r28
    17b0:	2f 5f       	subi	r18, 0xFF	; 255
    17b2:	3f 4f       	sbci	r19, 0xFF	; 255
    17b4:	a6 01       	movw	r20, r12
    17b6:	b7 01       	movw	r22, r14
    17b8:	c8 01       	movw	r24, r16
    17ba:	0e 94 8d 07 	call	0xf1a	; 0xf1a <_ZN10ACAN2517FD5beginERK18ACAN2517FDSettingsPFvvERK17ACAN2517FDFilters>
    17be:	6b 01       	movw	r12, r22
    17c0:	7c 01       	movw	r14, r24
    17c2:	8a 81       	ldd	r24, Y+2	; 0x02
    17c4:	9b 81       	ldd	r25, Y+3	; 0x03
    17c6:	00 97       	sbiw	r24, 0x00	; 0
    17c8:	69 f0       	breq	.+26     	; 0x17e4 <_ZN10ACAN2517FD5beginERK18ACAN2517FDSettingsPFvvE+0xa4>
    17ca:	fc 01       	movw	r30, r24
    17cc:	00 81       	ld	r16, Z
    17ce:	11 81       	ldd	r17, Z+1	; 0x01
    17d0:	0e 94 c3 15 	call	0x2b86	; 0x2b86 <_ZdlPv>
    17d4:	1b 83       	std	Y+3, r17	; 0x03
    17d6:	0a 83       	std	Y+2, r16	; 0x02
    17d8:	f4 cf       	rjmp	.-24     	; 0x17c2 <_ZN10ACAN2517FD5beginERK18ACAN2517FDSettingsPFvvE+0x82>
    17da:	ac 81       	ldd	r26, Y+4	; 0x04
    17dc:	bd 81       	ldd	r27, Y+5	; 0x05
    17de:	ed 93       	st	X+, r30
    17e0:	fc 93       	st	X, r31
    17e2:	e0 cf       	rjmp	.-64     	; 0x17a4 <_ZN10ACAN2517FD5beginERK18ACAN2517FDSettingsPFvvE+0x64>
    17e4:	c7 01       	movw	r24, r14
    17e6:	b6 01       	movw	r22, r12
    17e8:	28 96       	adiw	r28, 0x08	; 8
    17ea:	0f b6       	in	r0, 0x3f	; 63
    17ec:	f8 94       	cli
    17ee:	de bf       	out	0x3e, r29	; 62
    17f0:	0f be       	out	0x3f, r0	; 63
    17f2:	cd bf       	out	0x3d, r28	; 61
    17f4:	df 91       	pop	r29
    17f6:	cf 91       	pop	r28
    17f8:	1f 91       	pop	r17
    17fa:	0f 91       	pop	r16
    17fc:	ff 90       	pop	r15
    17fe:	ef 90       	pop	r14
    1800:	df 90       	pop	r13
    1802:	cf 90       	pop	r12
    1804:	08 95       	ret

00001806 <_ZN18ACAN2517FDSettingsC1ENS_10OscillatorEm17DataBitRateFactorm>:
    1806:	2f 92       	push	r2
    1808:	3f 92       	push	r3
    180a:	4f 92       	push	r4
    180c:	5f 92       	push	r5
    180e:	6f 92       	push	r6
    1810:	7f 92       	push	r7
    1812:	8f 92       	push	r8
    1814:	9f 92       	push	r9
    1816:	af 92       	push	r10
    1818:	bf 92       	push	r11
    181a:	cf 92       	push	r12
    181c:	df 92       	push	r13
    181e:	ef 92       	push	r14
    1820:	ff 92       	push	r15
    1822:	0f 93       	push	r16
    1824:	1f 93       	push	r17
    1826:	cf 93       	push	r28
    1828:	df 93       	push	r29
    182a:	cd b7       	in	r28, 0x3d	; 61
    182c:	de b7       	in	r29, 0x3e	; 62
    182e:	aa 97       	sbiw	r28, 0x2a	; 42
    1830:	0f b6       	in	r0, 0x3f	; 63
    1832:	f8 94       	cli
    1834:	de bf       	out	0x3e, r29	; 62
    1836:	0f be       	out	0x3f, r0	; 63
    1838:	cd bf       	out	0x3d, r28	; 61
    183a:	9a a7       	std	Y+42, r25	; 0x2a
    183c:	89 a7       	std	Y+41, r24	; 0x29
    183e:	29 8b       	std	Y+17, r18	; 0x11
    1840:	3a 8b       	std	Y+18, r19	; 0x12
    1842:	4b 8b       	std	Y+19, r20	; 0x13
    1844:	5c 8b       	std	Y+20, r21	; 0x14
    1846:	c9 a2       	std	Y+33, r12	; 0x21
    1848:	da a2       	std	Y+34, r13	; 0x22
    184a:	eb a2       	std	Y+35, r14	; 0x23
    184c:	fc a2       	std	Y+36, r15	; 0x24
    184e:	dc 01       	movw	r26, r24
    1850:	6c 93       	st	X, r22
    1852:	c1 2c       	mov	r12, r1
    1854:	2a e5       	ldi	r18, 0x5A	; 90
    1856:	d2 2e       	mov	r13, r18
    1858:	22 e6       	ldi	r18, 0x62	; 98
    185a:	e2 2e       	mov	r14, r18
    185c:	22 e0       	ldi	r18, 0x02	; 2
    185e:	f2 2e       	mov	r15, r18
    1860:	68 30       	cpi	r22, 0x08	; 8
    1862:	50 f4       	brcc	.+20     	; 0x1878 <_ZN18ACAN2517FDSettingsC1ENS_10OscillatorEm17DataBitRateFactorm+0x72>
    1864:	b4 e0       	ldi	r27, 0x04	; 4
    1866:	6b 9f       	mul	r22, r27
    1868:	f0 01       	movw	r30, r0
    186a:	11 24       	eor	r1, r1
    186c:	ea 59       	subi	r30, 0x9A	; 154
    186e:	fe 4f       	sbci	r31, 0xFE	; 254
    1870:	c0 80       	ld	r12, Z
    1872:	d1 80       	ldd	r13, Z+1	; 0x01
    1874:	e2 80       	ldd	r14, Z+2	; 0x02
    1876:	f3 80       	ldd	r15, Z+3	; 0x03
    1878:	c9 82       	std	Y+1, r12	; 0x01
    187a:	da 82       	std	Y+2, r13	; 0x02
    187c:	eb 82       	std	Y+3, r14	; 0x03
    187e:	fc 82       	std	Y+4, r15	; 0x04
    1880:	c9 80       	ldd	r12, Y+1	; 0x01
    1882:	da 80       	ldd	r13, Y+2	; 0x02
    1884:	eb 80       	ldd	r14, Y+3	; 0x03
    1886:	fc 80       	ldd	r15, Y+4	; 0x04
    1888:	a9 a5       	ldd	r26, Y+41	; 0x29
    188a:	ba a5       	ldd	r27, Y+42	; 0x2a
    188c:	11 96       	adiw	r26, 0x01	; 1
    188e:	cd 92       	st	X+, r12
    1890:	dd 92       	st	X+, r13
    1892:	ed 92       	st	X+, r14
    1894:	fc 92       	st	X, r15
    1896:	14 97       	sbiw	r26, 0x04	; 4
    1898:	c9 88       	ldd	r12, Y+17	; 0x11
    189a:	da 88       	ldd	r13, Y+18	; 0x12
    189c:	eb 88       	ldd	r14, Y+19	; 0x13
    189e:	fc 88       	ldd	r15, Y+20	; 0x14
    18a0:	15 96       	adiw	r26, 0x05	; 5
    18a2:	cd 92       	st	X+, r12
    18a4:	dd 92       	st	X+, r13
    18a6:	ed 92       	st	X+, r14
    18a8:	fc 92       	st	X, r15
    18aa:	18 97       	sbiw	r26, 0x08	; 8
    18ac:	19 96       	adiw	r26, 0x09	; 9
    18ae:	0c 93       	st	X, r16
    18b0:	19 97       	sbiw	r26, 0x09	; 9
    18b2:	1a 96       	adiw	r26, 0x0a	; 10
    18b4:	1c 92       	st	X, r1
    18b6:	1a 97       	sbiw	r26, 0x0a	; 10
    18b8:	1b 96       	adiw	r26, 0x0b	; 11
    18ba:	1c 92       	st	X, r1
    18bc:	1b 97       	sbiw	r26, 0x0b	; 11
    18be:	1c 96       	adiw	r26, 0x0c	; 12
    18c0:	1c 92       	st	X, r1
    18c2:	1c 97       	sbiw	r26, 0x0c	; 12
    18c4:	1e 96       	adiw	r26, 0x0e	; 14
    18c6:	1c 92       	st	X, r1
    18c8:	1e 92       	st	-X, r1
    18ca:	1d 97       	sbiw	r26, 0x0d	; 13
    18cc:	50 96       	adiw	r26, 0x10	; 16
    18ce:	1c 92       	st	X, r1
    18d0:	1e 92       	st	-X, r1
    18d2:	1f 97       	sbiw	r26, 0x0f	; 15
    18d4:	51 96       	adiw	r26, 0x11	; 17
    18d6:	1c 92       	st	X, r1
    18d8:	51 97       	sbiw	r26, 0x11	; 17
    18da:	52 96       	adiw	r26, 0x12	; 18
    18dc:	1c 92       	st	X, r1
    18de:	52 97       	sbiw	r26, 0x12	; 18
    18e0:	53 96       	adiw	r26, 0x13	; 19
    18e2:	1c 92       	st	X, r1
    18e4:	53 97       	sbiw	r26, 0x13	; 19
    18e6:	54 96       	adiw	r26, 0x14	; 20
    18e8:	1c 92       	st	X, r1
    18ea:	54 97       	sbiw	r26, 0x14	; 20
    18ec:	55 96       	adiw	r26, 0x15	; 21
    18ee:	1c 92       	st	X, r1
    18f0:	55 97       	sbiw	r26, 0x15	; 21
    18f2:	56 96       	adiw	r26, 0x16	; 22
    18f4:	1c 92       	st	X, r1
    18f6:	56 97       	sbiw	r26, 0x16	; 22
    18f8:	81 e0       	ldi	r24, 0x01	; 1
    18fa:	57 96       	adiw	r26, 0x17	; 23
    18fc:	8c 93       	st	X, r24
    18fe:	57 97       	sbiw	r26, 0x17	; 23
    1900:	93 e0       	ldi	r25, 0x03	; 3
    1902:	58 96       	adiw	r26, 0x18	; 24
    1904:	9c 93       	st	X, r25
    1906:	58 97       	sbiw	r26, 0x18	; 24
    1908:	59 96       	adiw	r26, 0x19	; 25
    190a:	1c 92       	st	X, r1
    190c:	59 97       	sbiw	r26, 0x19	; 25
    190e:	20 e1       	ldi	r18, 0x10	; 16
    1910:	30 e0       	ldi	r19, 0x00	; 0
    1912:	5b 96       	adiw	r26, 0x1b	; 27
    1914:	3c 93       	st	X, r19
    1916:	2e 93       	st	-X, r18
    1918:	5a 97       	sbiw	r26, 0x1a	; 26
    191a:	5c 96       	adiw	r26, 0x1c	; 28
    191c:	8c 93       	st	X, r24
    191e:	5c 97       	sbiw	r26, 0x1c	; 28
    1920:	87 e0       	ldi	r24, 0x07	; 7
    1922:	5d 96       	adiw	r26, 0x1d	; 29
    1924:	8c 93       	st	X, r24
    1926:	5d 97       	sbiw	r26, 0x1d	; 29
    1928:	5e 96       	adiw	r26, 0x1e	; 30
    192a:	1c 92       	st	X, r1
    192c:	5e 97       	sbiw	r26, 0x1e	; 30
    192e:	92 e0       	ldi	r25, 0x02	; 2
    1930:	5f 96       	adiw	r26, 0x1f	; 31
    1932:	9c 93       	st	X, r25
    1934:	5f 97       	sbiw	r26, 0x1f	; 31
    1936:	90 96       	adiw	r26, 0x20	; 32
    1938:	1c 92       	st	X, r1
    193a:	90 97       	sbiw	r26, 0x20	; 32
    193c:	91 96       	adiw	r26, 0x21	; 33
    193e:	8c 93       	st	X, r24
    1940:	91 97       	sbiw	r26, 0x21	; 33
    1942:	2f e1       	ldi	r18, 0x1F	; 31
    1944:	92 96       	adiw	r26, 0x22	; 34
    1946:	2c 93       	st	X, r18
    1948:	92 97       	sbiw	r26, 0x22	; 34
    194a:	93 96       	adiw	r26, 0x23	; 35
    194c:	9c 93       	st	X, r25
    194e:	93 97       	sbiw	r26, 0x23	; 35
    1950:	20 e2       	ldi	r18, 0x20	; 32
    1952:	30 e0       	ldi	r19, 0x00	; 0
    1954:	95 96       	adiw	r26, 0x25	; 37
    1956:	3c 93       	st	X, r19
    1958:	2e 93       	st	-X, r18
    195a:	94 97       	sbiw	r26, 0x24	; 36
    195c:	96 96       	adiw	r26, 0x26	; 38
    195e:	8c 93       	st	X, r24
    1960:	96 97       	sbiw	r26, 0x26	; 38
    1962:	8b e1       	ldi	r24, 0x1B	; 27
    1964:	97 96       	adiw	r26, 0x27	; 39
    1966:	8c 93       	st	X, r24
    1968:	01 30       	cpi	r16, 0x01	; 1
    196a:	09 f0       	breq	.+2      	; 0x196e <_ZN18ACAN2517FDSettingsC1ENS_10OscillatorEm17DataBitRateFactorm+0x168>
    196c:	85 c1       	rjmp	.+778    	; 0x1c78 <_ZN18ACAN2517FDSettingsC1ENS_10OscillatorEm17DataBitRateFactorm+0x472>
    196e:	69 81       	ldd	r22, Y+1	; 0x01
    1970:	7a 81       	ldd	r23, Y+2	; 0x02
    1972:	8b 81       	ldd	r24, Y+3	; 0x03
    1974:	9c 81       	ldd	r25, Y+4	; 0x04
    1976:	a7 01       	movw	r20, r14
    1978:	96 01       	movw	r18, r12
    197a:	0e 94 d4 1b 	call	0x37a8	; 0x37a8 <__udivmodsi4>
    197e:	2d 8b       	std	Y+21, r18	; 0x15
    1980:	3e 8b       	std	Y+22, r19	; 0x16
    1982:	4f 8b       	std	Y+23, r20	; 0x17
    1984:	58 8f       	std	Y+24, r21	; 0x18
    1986:	83 2e       	mov	r8, r19
    1988:	94 2e       	mov	r9, r20
    198a:	a5 2e       	mov	r10, r21
    198c:	bb 24       	eor	r11, r11
    198e:	fe 2c       	mov	r15, r14
    1990:	ed 2c       	mov	r14, r13
    1992:	dc 2c       	mov	r13, r12
    1994:	cc 24       	eor	r12, r12
    1996:	cd 86       	std	Y+13, r12	; 0x0d
    1998:	de 86       	std	Y+14, r13	; 0x0e
    199a:	ef 86       	std	Y+15, r14	; 0x0f
    199c:	f8 8a       	std	Y+16, r15	; 0x10
    199e:	b4 e0       	ldi	r27, 0x04	; 4
    19a0:	4b 2e       	mov	r4, r27
    19a2:	51 2c       	mov	r5, r1
    19a4:	61 2c       	mov	r6, r1
    19a6:	71 2c       	mov	r7, r1
    19a8:	10 e0       	ldi	r17, 0x00	; 0
    19aa:	21 2c       	mov	r2, r1
    19ac:	31 2c       	mov	r3, r1
    19ae:	cc 24       	eor	r12, r12
    19b0:	ca 94       	dec	r12
    19b2:	dc 2c       	mov	r13, r12
    19b4:	76 01       	movw	r14, r12
    19b6:	c9 86       	std	Y+9, r12	; 0x09
    19b8:	da 86       	std	Y+10, r13	; 0x0a
    19ba:	eb 86       	std	Y+11, r14	; 0x0b
    19bc:	fc 86       	std	Y+12, r15	; 0x0c
    19be:	c1 2c       	mov	r12, r1
    19c0:	d1 2c       	mov	r13, r1
    19c2:	76 01       	movw	r14, r12
    19c4:	d3 94       	inc	r13
    19c6:	72 e8       	ldi	r23, 0x82	; 130
    19c8:	87 16       	cp	r8, r23
    19ca:	71 e0       	ldi	r23, 0x01	; 1
    19cc:	97 06       	cpc	r9, r23
    19ce:	a1 04       	cpc	r10, r1
    19d0:	b1 04       	cpc	r11, r1
    19d2:	08 f0       	brcs	.+2      	; 0x19d6 <_ZN18ACAN2517FDSettingsC1ENS_10OscillatorEm17DataBitRateFactorm+0x1d0>
    19d4:	96 c0       	rjmp	.+300    	; 0x1b02 <_ZN18ACAN2517FDSettingsC1ENS_10OscillatorEm17DataBitRateFactorm+0x2fc>
    19d6:	c1 14       	cp	r12, r1
    19d8:	d1 04       	cpc	r13, r1
    19da:	e1 04       	cpc	r14, r1
    19dc:	f1 04       	cpc	r15, r1
    19de:	09 f4       	brne	.+2      	; 0x19e2 <_ZN18ACAN2517FDSettingsC1ENS_10OscillatorEm17DataBitRateFactorm+0x1dc>
    19e0:	90 c0       	rjmp	.+288    	; 0x1b02 <_ZN18ACAN2517FDSettingsC1ENS_10OscillatorEm17DataBitRateFactorm+0x2fc>
    19e2:	d5 01       	movw	r26, r10
    19e4:	c4 01       	movw	r24, r8
    19e6:	04 97       	sbiw	r24, 0x04	; 4
    19e8:	a1 09       	sbc	r26, r1
    19ea:	b1 09       	sbc	r27, r1
    19ec:	8e 37       	cpi	r24, 0x7E	; 126
    19ee:	91 40       	sbci	r25, 0x01	; 1
    19f0:	a1 05       	cpc	r26, r1
    19f2:	b1 05       	cpc	r27, r1
    19f4:	48 f5       	brcc	.+82     	; 0x1a48 <_ZN18ACAN2517FDSettingsC1ENS_10OscillatorEm17DataBitRateFactorm+0x242>
    19f6:	a7 01       	movw	r20, r14
    19f8:	96 01       	movw	r18, r12
    19fa:	c5 01       	movw	r24, r10
    19fc:	b4 01       	movw	r22, r8
    19fe:	0e 94 c4 1b 	call	0x3788	; 0x3788 <__mulsi3>
    1a02:	9b 01       	movw	r18, r22
    1a04:	ac 01       	movw	r20, r24
    1a06:	69 89       	ldd	r22, Y+17	; 0x11
    1a08:	7a 89       	ldd	r23, Y+18	; 0x12
    1a0a:	8b 89       	ldd	r24, Y+19	; 0x13
    1a0c:	9c 89       	ldd	r25, Y+20	; 0x14
    1a0e:	0e 94 c4 1b 	call	0x3788	; 0x3788 <__mulsi3>
    1a12:	29 81       	ldd	r18, Y+1	; 0x01
    1a14:	3a 81       	ldd	r19, Y+2	; 0x02
    1a16:	4b 81       	ldd	r20, Y+3	; 0x03
    1a18:	5c 81       	ldd	r21, Y+4	; 0x04
    1a1a:	26 1b       	sub	r18, r22
    1a1c:	37 0b       	sbc	r19, r23
    1a1e:	48 0b       	sbc	r20, r24
    1a20:	59 0b       	sbc	r21, r25
    1a22:	da 01       	movw	r26, r20
    1a24:	c9 01       	movw	r24, r18
    1a26:	49 85       	ldd	r20, Y+9	; 0x09
    1a28:	5a 85       	ldd	r21, Y+10	; 0x0a
    1a2a:	6b 85       	ldd	r22, Y+11	; 0x0b
    1a2c:	7c 85       	ldd	r23, Y+12	; 0x0c
    1a2e:	48 17       	cp	r20, r24
    1a30:	59 07       	cpc	r21, r25
    1a32:	6a 07       	cpc	r22, r26
    1a34:	7b 07       	cpc	r23, r27
    1a36:	40 f0       	brcs	.+16     	; 0x1a48 <_ZN18ACAN2517FDSettingsC1ENS_10OscillatorEm17DataBitRateFactorm+0x242>
    1a38:	24 01       	movw	r4, r8
    1a3a:	35 01       	movw	r6, r10
    1a3c:	86 01       	movw	r16, r12
    1a3e:	17 01       	movw	r2, r14
    1a40:	89 87       	std	Y+9, r24	; 0x09
    1a42:	9a 87       	std	Y+10, r25	; 0x0a
    1a44:	ab 87       	std	Y+11, r26	; 0x0b
    1a46:	bc 87       	std	Y+12, r27	; 0x0c
    1a48:	d5 01       	movw	r26, r10
    1a4a:	c4 01       	movw	r24, r8
    1a4c:	03 97       	sbiw	r24, 0x03	; 3
    1a4e:	a1 09       	sbc	r26, r1
    1a50:	b1 09       	sbc	r27, r1
    1a52:	8e 37       	cpi	r24, 0x7E	; 126
    1a54:	91 40       	sbci	r25, 0x01	; 1
    1a56:	a1 05       	cpc	r26, r1
    1a58:	b1 05       	cpc	r27, r1
    1a5a:	40 f5       	brcc	.+80     	; 0x1aac <_ZN18ACAN2517FDSettingsC1ENS_10OscillatorEm17DataBitRateFactorm+0x2a6>
    1a5c:	6f ef       	ldi	r22, 0xFF	; 255
    1a5e:	86 1a       	sub	r8, r22
    1a60:	96 0a       	sbc	r9, r22
    1a62:	a6 0a       	sbc	r10, r22
    1a64:	b6 0a       	sbc	r11, r22
    1a66:	a5 01       	movw	r20, r10
    1a68:	94 01       	movw	r18, r8
    1a6a:	6d 85       	ldd	r22, Y+13	; 0x0d
    1a6c:	7e 85       	ldd	r23, Y+14	; 0x0e
    1a6e:	8f 85       	ldd	r24, Y+15	; 0x0f
    1a70:	98 89       	ldd	r25, Y+16	; 0x10
    1a72:	0e 94 c4 1b 	call	0x3788	; 0x3788 <__mulsi3>
    1a76:	dc 01       	movw	r26, r24
    1a78:	cb 01       	movw	r24, r22
    1a7a:	29 81       	ldd	r18, Y+1	; 0x01
    1a7c:	3a 81       	ldd	r19, Y+2	; 0x02
    1a7e:	4b 81       	ldd	r20, Y+3	; 0x03
    1a80:	5c 81       	ldd	r21, Y+4	; 0x04
    1a82:	82 1b       	sub	r24, r18
    1a84:	93 0b       	sbc	r25, r19
    1a86:	a4 0b       	sbc	r26, r20
    1a88:	b5 0b       	sbc	r27, r21
    1a8a:	49 85       	ldd	r20, Y+9	; 0x09
    1a8c:	5a 85       	ldd	r21, Y+10	; 0x0a
    1a8e:	6b 85       	ldd	r22, Y+11	; 0x0b
    1a90:	7c 85       	ldd	r23, Y+12	; 0x0c
    1a92:	48 17       	cp	r20, r24
    1a94:	59 07       	cpc	r21, r25
    1a96:	6a 07       	cpc	r22, r26
    1a98:	7b 07       	cpc	r23, r27
    1a9a:	40 f0       	brcs	.+16     	; 0x1aac <_ZN18ACAN2517FDSettingsC1ENS_10OscillatorEm17DataBitRateFactorm+0x2a6>
    1a9c:	24 01       	movw	r4, r8
    1a9e:	35 01       	movw	r6, r10
    1aa0:	86 01       	movw	r16, r12
    1aa2:	17 01       	movw	r2, r14
    1aa4:	89 87       	std	Y+9, r24	; 0x09
    1aa6:	9a 87       	std	Y+10, r25	; 0x0a
    1aa8:	ab 87       	std	Y+11, r26	; 0x0b
    1aaa:	bc 87       	std	Y+12, r27	; 0x0c
    1aac:	51 e0       	ldi	r21, 0x01	; 1
    1aae:	c5 1a       	sub	r12, r21
    1ab0:	d1 08       	sbc	r13, r1
    1ab2:	e1 08       	sbc	r14, r1
    1ab4:	f1 08       	sbc	r15, r1
    1ab6:	e2 e8       	ldi	r30, 0x82	; 130
    1ab8:	8e 2e       	mov	r8, r30
    1aba:	99 24       	eor	r9, r9
    1abc:	93 94       	inc	r9
    1abe:	a1 2c       	mov	r10, r1
    1ac0:	b1 2c       	mov	r11, r1
    1ac2:	c1 14       	cp	r12, r1
    1ac4:	d1 04       	cpc	r13, r1
    1ac6:	e1 04       	cpc	r14, r1
    1ac8:	f1 04       	cpc	r15, r1
    1aca:	51 f0       	breq	.+20     	; 0x1ae0 <_ZN18ACAN2517FDSettingsC1ENS_10OscillatorEm17DataBitRateFactorm+0x2da>
    1acc:	6d 89       	ldd	r22, Y+21	; 0x15
    1ace:	7e 89       	ldd	r23, Y+22	; 0x16
    1ad0:	8f 89       	ldd	r24, Y+23	; 0x17
    1ad2:	98 8d       	ldd	r25, Y+24	; 0x18
    1ad4:	a7 01       	movw	r20, r14
    1ad6:	96 01       	movw	r18, r12
    1ad8:	0e 94 d4 1b 	call	0x37a8	; 0x37a8 <__udivmodsi4>
    1adc:	49 01       	movw	r8, r18
    1ade:	5a 01       	movw	r10, r20
    1ae0:	2d 85       	ldd	r18, Y+13	; 0x0d
    1ae2:	3e 85       	ldd	r19, Y+14	; 0x0e
    1ae4:	4f 85       	ldd	r20, Y+15	; 0x0f
    1ae6:	58 89       	ldd	r21, Y+16	; 0x10
    1ae8:	69 89       	ldd	r22, Y+17	; 0x11
    1aea:	7a 89       	ldd	r23, Y+18	; 0x12
    1aec:	8b 89       	ldd	r24, Y+19	; 0x13
    1aee:	9c 89       	ldd	r25, Y+20	; 0x14
    1af0:	26 1b       	sub	r18, r22
    1af2:	37 0b       	sbc	r19, r23
    1af4:	48 0b       	sbc	r20, r24
    1af6:	59 0b       	sbc	r21, r25
    1af8:	2d 87       	std	Y+13, r18	; 0x0d
    1afa:	3e 87       	std	Y+14, r19	; 0x0e
    1afc:	4f 87       	std	Y+15, r20	; 0x0f
    1afe:	58 8b       	std	Y+16, r21	; 0x10
    1b00:	62 cf       	rjmp	.-316    	; 0x19c6 <_ZN18ACAN2517FDSettingsC1ENS_10OscillatorEm17DataBitRateFactorm+0x1c0>
    1b02:	c3 01       	movw	r24, r6
    1b04:	b2 01       	movw	r22, r4
    1b06:	25 e0       	ldi	r18, 0x05	; 5
    1b08:	30 e0       	ldi	r19, 0x00	; 0
    1b0a:	40 e0       	ldi	r20, 0x00	; 0
    1b0c:	50 e0       	ldi	r21, 0x00	; 0
    1b0e:	0e 94 d4 1b 	call	0x37a8	; 0x37a8 <__udivmodsi4>
    1b12:	21 15       	cp	r18, r1
    1b14:	31 05       	cpc	r19, r1
    1b16:	41 05       	cpc	r20, r1
    1b18:	51 05       	cpc	r21, r1
    1b1a:	21 f4       	brne	.+8      	; 0x1b24 <_ZN18ACAN2517FDSettingsC1ENS_10OscillatorEm17DataBitRateFactorm+0x31e>
    1b1c:	21 e0       	ldi	r18, 0x01	; 1
    1b1e:	30 e0       	ldi	r19, 0x00	; 0
    1b20:	40 e0       	ldi	r20, 0x00	; 0
    1b22:	50 e0       	ldi	r21, 0x00	; 0
    1b24:	73 01       	movw	r14, r6
    1b26:	62 01       	movw	r12, r4
    1b28:	61 e0       	ldi	r22, 0x01	; 1
    1b2a:	c6 1a       	sub	r12, r22
    1b2c:	d1 08       	sbc	r13, r1
    1b2e:	e1 08       	sbc	r14, r1
    1b30:	f1 08       	sbc	r15, r1
    1b32:	c2 1a       	sub	r12, r18
    1b34:	d3 0a       	sbc	r13, r19
    1b36:	e4 0a       	sbc	r14, r20
    1b38:	f5 0a       	sbc	r15, r21
    1b3a:	71 e0       	ldi	r23, 0x01	; 1
    1b3c:	c7 16       	cp	r12, r23
    1b3e:	d7 06       	cpc	r13, r23
    1b40:	e1 04       	cpc	r14, r1
    1b42:	f1 04       	cpc	r15, r1
    1b44:	58 f0       	brcs	.+22     	; 0x1b5c <_ZN18ACAN2517FDSettingsC1ENS_10OscillatorEm17DataBitRateFactorm+0x356>
    1b46:	31 50       	subi	r19, 0x01	; 1
    1b48:	41 09       	sbc	r20, r1
    1b4a:	51 09       	sbc	r21, r1
    1b4c:	2c 0d       	add	r18, r12
    1b4e:	3d 1d       	adc	r19, r13
    1b50:	4e 1d       	adc	r20, r14
    1b52:	5f 1d       	adc	r21, r15
    1b54:	c1 2c       	mov	r12, r1
    1b56:	d1 2c       	mov	r13, r1
    1b58:	76 01       	movw	r14, r12
    1b5a:	d3 94       	inc	r13
    1b5c:	a9 a5       	ldd	r26, Y+41	; 0x29
    1b5e:	ba a5       	ldd	r27, Y+42	; 0x2a
    1b60:	1e 96       	adiw	r26, 0x0e	; 14
    1b62:	1c 93       	st	X, r17
    1b64:	0e 93       	st	-X, r16
    1b66:	1d 97       	sbiw	r26, 0x0d	; 13
    1b68:	50 96       	adiw	r26, 0x10	; 16
    1b6a:	dc 92       	st	X, r13
    1b6c:	ce 92       	st	-X, r12
    1b6e:	1f 97       	sbiw	r26, 0x0f	; 15
    1b70:	51 96       	adiw	r26, 0x11	; 17
    1b72:	2c 93       	st	X, r18
    1b74:	51 97       	sbiw	r26, 0x11	; 17
    1b76:	52 96       	adiw	r26, 0x12	; 18
    1b78:	2c 93       	st	X, r18
    1b7a:	98 01       	movw	r18, r16
    1b7c:	a1 01       	movw	r20, r2
    1b7e:	c3 01       	movw	r24, r6
    1b80:	b2 01       	movw	r22, r4
    1b82:	0e 94 c4 1b 	call	0x3788	; 0x3788 <__mulsi3>
    1b86:	9b 01       	movw	r18, r22
    1b88:	ac 01       	movw	r20, r24
    1b8a:	69 89       	ldd	r22, Y+17	; 0x11
    1b8c:	7a 89       	ldd	r23, Y+18	; 0x12
    1b8e:	8b 89       	ldd	r24, Y+19	; 0x13
    1b90:	9c 89       	ldd	r25, Y+20	; 0x14
    1b92:	0e 94 c4 1b 	call	0x3788	; 0x3788 <__mulsi3>
    1b96:	2b 01       	movw	r4, r22
    1b98:	3c 01       	movw	r6, r24
    1b9a:	c9 80       	ldd	r12, Y+1	; 0x01
    1b9c:	da 80       	ldd	r13, Y+2	; 0x02
    1b9e:	eb 80       	ldd	r14, Y+3	; 0x03
    1ba0:	fc 80       	ldd	r15, Y+4	; 0x04
    1ba2:	4c 14       	cp	r4, r12
    1ba4:	5d 04       	cpc	r5, r13
    1ba6:	6e 04       	cpc	r6, r14
    1ba8:	7f 04       	cpc	r7, r15
    1baa:	08 f0       	brcs	.+2      	; 0x1bae <_ZN18ACAN2517FDSettingsC1ENS_10OscillatorEm17DataBitRateFactorm+0x3a8>
    1bac:	dd c1       	rjmp	.+954    	; 0x1f68 <_ZN18ACAN2517FDSettingsC1ENS_10OscillatorEm17DataBitRateFactorm+0x762>
    1bae:	d7 01       	movw	r26, r14
    1bb0:	c6 01       	movw	r24, r12
    1bb2:	84 19       	sub	r24, r4
    1bb4:	95 09       	sbc	r25, r5
    1bb6:	a6 09       	sbc	r26, r6
    1bb8:	b7 09       	sbc	r27, r7
    1bba:	7c 01       	movw	r14, r24
    1bbc:	8d 01       	movw	r16, r26
    1bbe:	20 e0       	ldi	r18, 0x00	; 0
    1bc0:	30 e0       	ldi	r19, 0x00	; 0
    1bc2:	a9 01       	movw	r20, r18
    1bc4:	89 83       	std	Y+1, r24	; 0x01
    1bc6:	fa 82       	std	Y+2, r15	; 0x02
    1bc8:	ab 83       	std	Y+3, r26	; 0x03
    1bca:	1c 83       	std	Y+4, r17	; 0x04
    1bcc:	2d 83       	std	Y+5, r18	; 0x05
    1bce:	3e 83       	std	Y+6, r19	; 0x06
    1bd0:	4f 83       	std	Y+7, r20	; 0x07
    1bd2:	58 87       	std	Y+8, r21	; 0x08
    1bd4:	80 e4       	ldi	r24, 0x40	; 64
    1bd6:	a8 2e       	mov	r10, r24
    1bd8:	92 e4       	ldi	r25, 0x42	; 66
    1bda:	b9 2e       	mov	r11, r25
    1bdc:	2f e0       	ldi	r18, 0x0F	; 15
    1bde:	c2 2e       	mov	r12, r18
    1be0:	d1 2c       	mov	r13, r1
    1be2:	e1 2c       	mov	r14, r1
    1be4:	f1 2c       	mov	r15, r1
    1be6:	00 e0       	ldi	r16, 0x00	; 0
    1be8:	10 e0       	ldi	r17, 0x00	; 0
    1bea:	29 81       	ldd	r18, Y+1	; 0x01
    1bec:	3a 81       	ldd	r19, Y+2	; 0x02
    1bee:	4b 81       	ldd	r20, Y+3	; 0x03
    1bf0:	5c 81       	ldd	r21, Y+4	; 0x04
    1bf2:	6d 81       	ldd	r22, Y+5	; 0x05
    1bf4:	7e 81       	ldd	r23, Y+6	; 0x06
    1bf6:	8f 81       	ldd	r24, Y+7	; 0x07
    1bf8:	98 85       	ldd	r25, Y+8	; 0x08
    1bfa:	0e 94 17 1c 	call	0x382e	; 0x382e <__muldi3>
    1bfe:	79 01       	movw	r14, r18
    1c00:	8a 01       	movw	r16, r20
    1c02:	1b 01       	movw	r2, r22
    1c04:	4c 01       	movw	r8, r24
    1c06:	c3 01       	movw	r24, r6
    1c08:	b2 01       	movw	r22, r4
    1c0a:	29 a1       	ldd	r18, Y+33	; 0x21
    1c0c:	3a a1       	ldd	r19, Y+34	; 0x22
    1c0e:	4b a1       	ldd	r20, Y+35	; 0x23
    1c10:	5c a1       	ldd	r21, Y+36	; 0x24
    1c12:	0e 94 6f 1c 	call	0x38de	; 0x38de <__umulsidi3>
    1c16:	59 01       	movw	r10, r18
    1c18:	6a 01       	movw	r12, r20
    1c1a:	76 2e       	mov	r7, r22
    1c1c:	b7 2f       	mov	r27, r23
    1c1e:	a8 2f       	mov	r26, r24
    1c20:	f9 2f       	mov	r31, r25
    1c22:	e1 e0       	ldi	r30, 0x01	; 1
    1c24:	97 01       	movw	r18, r14
    1c26:	a8 01       	movw	r20, r16
    1c28:	b1 01       	movw	r22, r2
    1c2a:	c4 01       	movw	r24, r8
    1c2c:	e7 2c       	mov	r14, r7
    1c2e:	fb 2e       	mov	r15, r27
    1c30:	0a 2f       	mov	r16, r26
    1c32:	1f 2f       	mov	r17, r31
    1c34:	0e 94 d1 1c 	call	0x39a2	; 0x39a2 <__cmpdi2>
    1c38:	11 f0       	breq	.+4      	; 0x1c3e <_ZN18ACAN2517FDSettingsC1ENS_10OscillatorEm17DataBitRateFactorm+0x438>
    1c3a:	08 f0       	brcs	.+2      	; 0x1c3e <_ZN18ACAN2517FDSettingsC1ENS_10OscillatorEm17DataBitRateFactorm+0x438>
    1c3c:	e0 e0       	ldi	r30, 0x00	; 0
    1c3e:	a9 a5       	ldd	r26, Y+41	; 0x29
    1c40:	ba a5       	ldd	r27, Y+42	; 0x2a
    1c42:	53 96       	adiw	r26, 0x13	; 19
    1c44:	ec 93       	st	X, r30
    1c46:	aa 96       	adiw	r28, 0x2a	; 42
    1c48:	0f b6       	in	r0, 0x3f	; 63
    1c4a:	f8 94       	cli
    1c4c:	de bf       	out	0x3e, r29	; 62
    1c4e:	0f be       	out	0x3f, r0	; 63
    1c50:	cd bf       	out	0x3d, r28	; 61
    1c52:	df 91       	pop	r29
    1c54:	cf 91       	pop	r28
    1c56:	1f 91       	pop	r17
    1c58:	0f 91       	pop	r16
    1c5a:	ff 90       	pop	r15
    1c5c:	ef 90       	pop	r14
    1c5e:	df 90       	pop	r13
    1c60:	cf 90       	pop	r12
    1c62:	bf 90       	pop	r11
    1c64:	af 90       	pop	r10
    1c66:	9f 90       	pop	r9
    1c68:	8f 90       	pop	r8
    1c6a:	7f 90       	pop	r7
    1c6c:	6f 90       	pop	r6
    1c6e:	5f 90       	pop	r5
    1c70:	4f 90       	pop	r4
    1c72:	3f 90       	pop	r3
    1c74:	2f 90       	pop	r2
    1c76:	08 95       	ret
    1c78:	c0 2e       	mov	r12, r16
    1c7a:	d1 2c       	mov	r13, r1
    1c7c:	f1 2c       	mov	r15, r1
    1c7e:	e1 2c       	mov	r14, r1
    1c80:	cd 8e       	std	Y+29, r12	; 0x1d
    1c82:	de 8e       	std	Y+30, r13	; 0x1e
    1c84:	ef 8e       	std	Y+31, r14	; 0x1f
    1c86:	f8 a2       	std	Y+32, r15	; 0x20
    1c88:	a7 01       	movw	r20, r14
    1c8a:	96 01       	movw	r18, r12
    1c8c:	69 89       	ldd	r22, Y+17	; 0x11
    1c8e:	7a 89       	ldd	r23, Y+18	; 0x12
    1c90:	8b 89       	ldd	r24, Y+19	; 0x13
    1c92:	9c 89       	ldd	r25, Y+20	; 0x14
    1c94:	0e 94 c4 1b 	call	0x3788	; 0x3788 <__mulsi3>
    1c98:	6d 87       	std	Y+13, r22	; 0x0d
    1c9a:	7e 87       	std	Y+14, r23	; 0x0e
    1c9c:	8f 87       	std	Y+15, r24	; 0x0f
    1c9e:	98 8b       	std	Y+16, r25	; 0x10
    1ca0:	69 81       	ldd	r22, Y+1	; 0x01
    1ca2:	7a 81       	ldd	r23, Y+2	; 0x02
    1ca4:	8b 81       	ldd	r24, Y+3	; 0x03
    1ca6:	9c 81       	ldd	r25, Y+4	; 0x04
    1ca8:	2d 85       	ldd	r18, Y+13	; 0x0d
    1caa:	3e 85       	ldd	r19, Y+14	; 0x0e
    1cac:	4f 85       	ldd	r20, Y+15	; 0x0f
    1cae:	58 89       	ldd	r21, Y+16	; 0x10
    1cb0:	0e 94 d4 1b 	call	0x37a8	; 0x37a8 <__udivmodsi4>
    1cb4:	2d a3       	std	Y+37, r18	; 0x25
    1cb6:	3e a3       	std	Y+38, r19	; 0x26
    1cb8:	4f a3       	std	Y+39, r20	; 0x27
    1cba:	58 a7       	std	Y+40, r21	; 0x28
    1cbc:	69 01       	movw	r12, r18
    1cbe:	7a 01       	movw	r14, r20
    1cc0:	32 e0       	ldi	r19, 0x02	; 2
    1cc2:	f6 94       	lsr	r15
    1cc4:	e7 94       	ror	r14
    1cc6:	d7 94       	ror	r13
    1cc8:	c7 94       	ror	r12
    1cca:	3a 95       	dec	r19
    1ccc:	d1 f7       	brne	.-12     	; 0x1cc2 <_ZN18ACAN2517FDSettingsC1ENS_10OscillatorEm17DataBitRateFactorm+0x4bc>
    1cce:	0d 85       	ldd	r16, Y+13	; 0x0d
    1cd0:	1e 85       	ldd	r17, Y+14	; 0x0e
    1cd2:	2f 85       	ldd	r18, Y+15	; 0x0f
    1cd4:	38 89       	ldd	r19, Y+16	; 0x10
    1cd6:	42 e0       	ldi	r20, 0x02	; 2
    1cd8:	00 0f       	add	r16, r16
    1cda:	11 1f       	adc	r17, r17
    1cdc:	22 1f       	adc	r18, r18
    1cde:	33 1f       	adc	r19, r19
    1ce0:	4a 95       	dec	r20
    1ce2:	d1 f7       	brne	.-12     	; 0x1cd8 <_ZN18ACAN2517FDSettingsC1ENS_10OscillatorEm17DataBitRateFactorm+0x4d2>
    1ce4:	09 8f       	std	Y+25, r16	; 0x19
    1ce6:	1a 8f       	std	Y+26, r17	; 0x1a
    1ce8:	2b 8f       	std	Y+27, r18	; 0x1b
    1cea:	3c 8f       	std	Y+28, r19	; 0x1c
    1cec:	54 e0       	ldi	r21, 0x04	; 4
    1cee:	85 2e       	mov	r8, r21
    1cf0:	91 2c       	mov	r9, r1
    1cf2:	a1 2c       	mov	r10, r1
    1cf4:	b1 2c       	mov	r11, r1
    1cf6:	60 e3       	ldi	r22, 0x30	; 48
    1cf8:	46 2e       	mov	r4, r22
    1cfa:	51 2c       	mov	r5, r1
    1cfc:	61 2c       	mov	r6, r1
    1cfe:	71 2c       	mov	r7, r1
    1d00:	00 e0       	ldi	r16, 0x00	; 0
    1d02:	11 e0       	ldi	r17, 0x01	; 1
    1d04:	20 e0       	ldi	r18, 0x00	; 0
    1d06:	30 e0       	ldi	r19, 0x00	; 0
    1d08:	09 87       	std	Y+9, r16	; 0x09
    1d0a:	1a 87       	std	Y+10, r17	; 0x0a
    1d0c:	2b 87       	std	Y+11, r18	; 0x0b
    1d0e:	3c 87       	std	Y+12, r19	; 0x0c
    1d10:	0f ef       	ldi	r16, 0xFF	; 255
    1d12:	1f ef       	ldi	r17, 0xFF	; 255
    1d14:	98 01       	movw	r18, r16
    1d16:	0d 8b       	std	Y+21, r16	; 0x15
    1d18:	1e 8b       	std	Y+22, r17	; 0x16
    1d1a:	2f 8b       	std	Y+23, r18	; 0x17
    1d1c:	38 8f       	std	Y+24, r19	; 0x18
    1d1e:	c1 14       	cp	r12, r1
    1d20:	d1 04       	cpc	r13, r1
    1d22:	e1 04       	cpc	r14, r1
    1d24:	f1 04       	cpc	r15, r1
    1d26:	09 f4       	brne	.+2      	; 0x1d2a <_ZN18ACAN2517FDSettingsC1ENS_10OscillatorEm17DataBitRateFactorm+0x524>
    1d28:	88 c0       	rjmp	.+272    	; 0x1e3a <_ZN18ACAN2517FDSettingsC1ENS_10OscillatorEm17DataBitRateFactorm+0x634>
    1d2a:	11 e0       	ldi	r17, 0x01	; 1
    1d2c:	c1 16       	cp	r12, r17
    1d2e:	d1 06       	cpc	r13, r17
    1d30:	e1 04       	cpc	r14, r1
    1d32:	f1 04       	cpc	r15, r1
    1d34:	58 f5       	brcc	.+86     	; 0x1d8c <_ZN18ACAN2517FDSettingsC1ENS_10OscillatorEm17DataBitRateFactorm+0x586>
    1d36:	a5 01       	movw	r20, r10
    1d38:	94 01       	movw	r18, r8
    1d3a:	c7 01       	movw	r24, r14
    1d3c:	b6 01       	movw	r22, r12
    1d3e:	0e 94 c4 1b 	call	0x3788	; 0x3788 <__mulsi3>
    1d42:	9b 01       	movw	r18, r22
    1d44:	ac 01       	movw	r20, r24
    1d46:	6d 85       	ldd	r22, Y+13	; 0x0d
    1d48:	7e 85       	ldd	r23, Y+14	; 0x0e
    1d4a:	8f 85       	ldd	r24, Y+15	; 0x0f
    1d4c:	98 89       	ldd	r25, Y+16	; 0x10
    1d4e:	0e 94 c4 1b 	call	0x3788	; 0x3788 <__mulsi3>
    1d52:	09 81       	ldd	r16, Y+1	; 0x01
    1d54:	1a 81       	ldd	r17, Y+2	; 0x02
    1d56:	2b 81       	ldd	r18, Y+3	; 0x03
    1d58:	3c 81       	ldd	r19, Y+4	; 0x04
    1d5a:	06 1b       	sub	r16, r22
    1d5c:	17 0b       	sbc	r17, r23
    1d5e:	28 0b       	sbc	r18, r24
    1d60:	39 0b       	sbc	r19, r25
    1d62:	d9 01       	movw	r26, r18
    1d64:	c8 01       	movw	r24, r16
    1d66:	0d 89       	ldd	r16, Y+21	; 0x15
    1d68:	1e 89       	ldd	r17, Y+22	; 0x16
    1d6a:	2f 89       	ldd	r18, Y+23	; 0x17
    1d6c:	38 8d       	ldd	r19, Y+24	; 0x18
    1d6e:	08 17       	cp	r16, r24
    1d70:	19 07       	cpc	r17, r25
    1d72:	2a 07       	cpc	r18, r26
    1d74:	3b 07       	cpc	r19, r27
    1d76:	50 f0       	brcs	.+20     	; 0x1d8c <_ZN18ACAN2517FDSettingsC1ENS_10OscillatorEm17DataBitRateFactorm+0x586>
    1d78:	24 01       	movw	r4, r8
    1d7a:	35 01       	movw	r6, r10
    1d7c:	c9 86       	std	Y+9, r12	; 0x09
    1d7e:	da 86       	std	Y+10, r13	; 0x0a
    1d80:	eb 86       	std	Y+11, r14	; 0x0b
    1d82:	fc 86       	std	Y+12, r15	; 0x0c
    1d84:	8d 8b       	std	Y+21, r24	; 0x15
    1d86:	9e 8b       	std	Y+22, r25	; 0x16
    1d88:	af 8b       	std	Y+23, r26	; 0x17
    1d8a:	b8 8f       	std	Y+24, r27	; 0x18
    1d8c:	1f ef       	ldi	r17, 0xFF	; 255
    1d8e:	c1 16       	cp	r12, r17
    1d90:	d1 04       	cpc	r13, r1
    1d92:	e1 04       	cpc	r14, r1
    1d94:	f1 04       	cpc	r15, r1
    1d96:	09 f0       	breq	.+2      	; 0x1d9a <_ZN18ACAN2517FDSettingsC1ENS_10OscillatorEm17DataBitRateFactorm+0x594>
    1d98:	50 f5       	brcc	.+84     	; 0x1dee <_ZN18ACAN2517FDSettingsC1ENS_10OscillatorEm17DataBitRateFactorm+0x5e8>
    1d9a:	2f ef       	ldi	r18, 0xFF	; 255
    1d9c:	c2 1a       	sub	r12, r18
    1d9e:	d2 0a       	sbc	r13, r18
    1da0:	e2 0a       	sbc	r14, r18
    1da2:	f2 0a       	sbc	r15, r18
    1da4:	a7 01       	movw	r20, r14
    1da6:	96 01       	movw	r18, r12
    1da8:	69 8d       	ldd	r22, Y+25	; 0x19
    1daa:	7a 8d       	ldd	r23, Y+26	; 0x1a
    1dac:	8b 8d       	ldd	r24, Y+27	; 0x1b
    1dae:	9c 8d       	ldd	r25, Y+28	; 0x1c
    1db0:	0e 94 c4 1b 	call	0x3788	; 0x3788 <__mulsi3>
    1db4:	dc 01       	movw	r26, r24
    1db6:	cb 01       	movw	r24, r22
    1db8:	09 81       	ldd	r16, Y+1	; 0x01
    1dba:	1a 81       	ldd	r17, Y+2	; 0x02
    1dbc:	2b 81       	ldd	r18, Y+3	; 0x03
    1dbe:	3c 81       	ldd	r19, Y+4	; 0x04
    1dc0:	80 1b       	sub	r24, r16
    1dc2:	91 0b       	sbc	r25, r17
    1dc4:	a2 0b       	sbc	r26, r18
    1dc6:	b3 0b       	sbc	r27, r19
    1dc8:	0d 89       	ldd	r16, Y+21	; 0x15
    1dca:	1e 89       	ldd	r17, Y+22	; 0x16
    1dcc:	2f 89       	ldd	r18, Y+23	; 0x17
    1dce:	38 8d       	ldd	r19, Y+24	; 0x18
    1dd0:	08 17       	cp	r16, r24
    1dd2:	19 07       	cpc	r17, r25
    1dd4:	2a 07       	cpc	r18, r26
    1dd6:	3b 07       	cpc	r19, r27
    1dd8:	50 f0       	brcs	.+20     	; 0x1dee <_ZN18ACAN2517FDSettingsC1ENS_10OscillatorEm17DataBitRateFactorm+0x5e8>
    1dda:	24 01       	movw	r4, r8
    1ddc:	35 01       	movw	r6, r10
    1dde:	c9 86       	std	Y+9, r12	; 0x09
    1de0:	da 86       	std	Y+10, r13	; 0x0a
    1de2:	eb 86       	std	Y+11, r14	; 0x0b
    1de4:	fc 86       	std	Y+12, r15	; 0x0c
    1de6:	8d 8b       	std	Y+21, r24	; 0x15
    1de8:	9e 8b       	std	Y+22, r25	; 0x16
    1dea:	af 8b       	std	Y+23, r26	; 0x17
    1dec:	b8 8f       	std	Y+24, r27	; 0x18
    1dee:	1f ef       	ldi	r17, 0xFF	; 255
    1df0:	81 1a       	sub	r8, r17
    1df2:	91 0a       	sbc	r9, r17
    1df4:	a1 0a       	sbc	r10, r17
    1df6:	b1 0a       	sbc	r11, r17
    1df8:	6d a1       	ldd	r22, Y+37	; 0x25
    1dfa:	7e a1       	ldd	r23, Y+38	; 0x26
    1dfc:	8f a1       	ldd	r24, Y+39	; 0x27
    1dfe:	98 a5       	ldd	r25, Y+40	; 0x28
    1e00:	a5 01       	movw	r20, r10
    1e02:	94 01       	movw	r18, r8
    1e04:	0e 94 d4 1b 	call	0x37a8	; 0x37a8 <__udivmodsi4>
    1e08:	69 01       	movw	r12, r18
    1e0a:	7a 01       	movw	r14, r20
    1e0c:	09 8d       	ldd	r16, Y+25	; 0x19
    1e0e:	1a 8d       	ldd	r17, Y+26	; 0x1a
    1e10:	2b 8d       	ldd	r18, Y+27	; 0x1b
    1e12:	3c 8d       	ldd	r19, Y+28	; 0x1c
    1e14:	4d 85       	ldd	r20, Y+13	; 0x0d
    1e16:	5e 85       	ldd	r21, Y+14	; 0x0e
    1e18:	6f 85       	ldd	r22, Y+15	; 0x0f
    1e1a:	78 89       	ldd	r23, Y+16	; 0x10
    1e1c:	04 0f       	add	r16, r20
    1e1e:	15 1f       	adc	r17, r21
    1e20:	26 1f       	adc	r18, r22
    1e22:	37 1f       	adc	r19, r23
    1e24:	09 8f       	std	Y+25, r16	; 0x19
    1e26:	1a 8f       	std	Y+26, r17	; 0x1a
    1e28:	2b 8f       	std	Y+27, r18	; 0x1b
    1e2a:	3c 8f       	std	Y+28, r19	; 0x1c
    1e2c:	51 e3       	ldi	r21, 0x31	; 49
    1e2e:	85 16       	cp	r8, r21
    1e30:	91 04       	cpc	r9, r1
    1e32:	a1 04       	cpc	r10, r1
    1e34:	b1 04       	cpc	r11, r1
    1e36:	09 f0       	breq	.+2      	; 0x1e3a <_ZN18ACAN2517FDSettingsC1ENS_10OscillatorEm17DataBitRateFactorm+0x634>
    1e38:	72 cf       	rjmp	.-284    	; 0x1d1e <_ZN18ACAN2517FDSettingsC1ENS_10OscillatorEm17DataBitRateFactorm+0x518>
    1e3a:	c3 01       	movw	r24, r6
    1e3c:	b2 01       	movw	r22, r4
    1e3e:	25 e0       	ldi	r18, 0x05	; 5
    1e40:	30 e0       	ldi	r19, 0x00	; 0
    1e42:	40 e0       	ldi	r20, 0x00	; 0
    1e44:	50 e0       	ldi	r21, 0x00	; 0
    1e46:	0e 94 d4 1b 	call	0x37a8	; 0x37a8 <__udivmodsi4>
    1e4a:	21 15       	cp	r18, r1
    1e4c:	31 05       	cpc	r19, r1
    1e4e:	41 05       	cpc	r20, r1
    1e50:	51 05       	cpc	r21, r1
    1e52:	21 f4       	brne	.+8      	; 0x1e5c <_ZN18ACAN2517FDSettingsC1ENS_10OscillatorEm17DataBitRateFactorm+0x656>
    1e54:	21 e0       	ldi	r18, 0x01	; 1
    1e56:	30 e0       	ldi	r19, 0x00	; 0
    1e58:	40 e0       	ldi	r20, 0x00	; 0
    1e5a:	50 e0       	ldi	r21, 0x00	; 0
    1e5c:	d3 01       	movw	r26, r6
    1e5e:	c2 01       	movw	r24, r4
    1e60:	01 97       	sbiw	r24, 0x01	; 1
    1e62:	a1 09       	sbc	r26, r1
    1e64:	b1 09       	sbc	r27, r1
    1e66:	82 1b       	sub	r24, r18
    1e68:	93 0b       	sbc	r25, r19
    1e6a:	a4 0b       	sbc	r26, r20
    1e6c:	b5 0b       	sbc	r27, r21
    1e6e:	81 32       	cpi	r24, 0x21	; 33
    1e70:	91 05       	cpc	r25, r1
    1e72:	a1 05       	cpc	r26, r1
    1e74:	b1 05       	cpc	r27, r1
    1e76:	60 f0       	brcs	.+24     	; 0x1e90 <_ZN18ACAN2517FDSettingsC1ENS_10OscillatorEm17DataBitRateFactorm+0x68a>
    1e78:	20 52       	subi	r18, 0x20	; 32
    1e7a:	31 09       	sbc	r19, r1
    1e7c:	41 09       	sbc	r20, r1
    1e7e:	51 09       	sbc	r21, r1
    1e80:	28 0f       	add	r18, r24
    1e82:	39 1f       	adc	r19, r25
    1e84:	4a 1f       	adc	r20, r26
    1e86:	5b 1f       	adc	r21, r27
    1e88:	80 e2       	ldi	r24, 0x20	; 32
    1e8a:	90 e0       	ldi	r25, 0x00	; 0
    1e8c:	a0 e0       	ldi	r26, 0x00	; 0
    1e8e:	b0 e0       	ldi	r27, 0x00	; 0
    1e90:	09 85       	ldd	r16, Y+9	; 0x09
    1e92:	1a 85       	ldd	r17, Y+10	; 0x0a
    1e94:	cd 84       	ldd	r12, Y+13	; 0x0d
    1e96:	de 84       	ldd	r13, Y+14	; 0x0e
    1e98:	ef 84       	ldd	r14, Y+15	; 0x0f
    1e9a:	f8 88       	ldd	r15, Y+16	; 0x10
    1e9c:	61 e4       	ldi	r22, 0x41	; 65
    1e9e:	c6 16       	cp	r12, r22
    1ea0:	62 e4       	ldi	r22, 0x42	; 66
    1ea2:	d6 06       	cpc	r13, r22
    1ea4:	6f e0       	ldi	r22, 0x0F	; 15
    1ea6:	e6 06       	cpc	r14, r22
    1ea8:	f1 04       	cpc	r15, r1
    1eaa:	78 f0       	brcs	.+30     	; 0x1eca <_ZN18ACAN2517FDSettingsC1ENS_10OscillatorEm17DataBitRateFactorm+0x6c4>
    1eac:	08 9f       	mul	r16, r24
    1eae:	b0 01       	movw	r22, r0
    1eb0:	09 9f       	mul	r16, r25
    1eb2:	70 0d       	add	r23, r0
    1eb4:	18 9f       	mul	r17, r24
    1eb6:	70 0d       	add	r23, r0
    1eb8:	11 24       	eor	r1, r1
    1eba:	60 34       	cpi	r22, 0x40	; 64
    1ebc:	71 05       	cpc	r23, r1
    1ebe:	10 f0       	brcs	.+4      	; 0x1ec4 <_ZN18ACAN2517FDSettingsC1ENS_10OscillatorEm17DataBitRateFactorm+0x6be>
    1ec0:	6f e3       	ldi	r22, 0x3F	; 63
    1ec2:	70 e0       	ldi	r23, 0x00	; 0
    1ec4:	e9 a5       	ldd	r30, Y+41	; 0x29
    1ec6:	fa a5       	ldd	r31, Y+42	; 0x2a
    1ec8:	64 8b       	std	Z+20, r22	; 0x14
    1eca:	e9 a5       	ldd	r30, Y+41	; 0x29
    1ecc:	fa a5       	ldd	r31, Y+42	; 0x2a
    1ece:	82 87       	std	Z+10, r24	; 0x0a
    1ed0:	23 87       	std	Z+11, r18	; 0x0b
    1ed2:	24 87       	std	Z+12, r18	; 0x0c
    1ed4:	2d 8d       	ldd	r18, Y+29	; 0x1d
    1ed6:	3e 8d       	ldd	r19, Y+30	; 0x1e
    1ed8:	4f 8d       	ldd	r20, Y+31	; 0x1f
    1eda:	58 a1       	ldd	r21, Y+32	; 0x20
    1edc:	c3 01       	movw	r24, r6
    1ede:	b2 01       	movw	r22, r4
    1ee0:	0e 94 c4 1b 	call	0x3788	; 0x3788 <__mulsi3>
    1ee4:	6b 01       	movw	r12, r22
    1ee6:	7c 01       	movw	r14, r24
    1ee8:	25 e0       	ldi	r18, 0x05	; 5
    1eea:	30 e0       	ldi	r19, 0x00	; 0
    1eec:	40 e0       	ldi	r20, 0x00	; 0
    1eee:	50 e0       	ldi	r21, 0x00	; 0
    1ef0:	0e 94 d4 1b 	call	0x37a8	; 0x37a8 <__udivmodsi4>
    1ef4:	21 15       	cp	r18, r1
    1ef6:	31 05       	cpc	r19, r1
    1ef8:	41 05       	cpc	r20, r1
    1efa:	51 05       	cpc	r21, r1
    1efc:	21 f4       	brne	.+8      	; 0x1f06 <_ZN18ACAN2517FDSettingsC1ENS_10OscillatorEm17DataBitRateFactorm+0x700>
    1efe:	21 e0       	ldi	r18, 0x01	; 1
    1f00:	30 e0       	ldi	r19, 0x00	; 0
    1f02:	40 e0       	ldi	r20, 0x00	; 0
    1f04:	50 e0       	ldi	r21, 0x00	; 0
    1f06:	d7 01       	movw	r26, r14
    1f08:	c6 01       	movw	r24, r12
    1f0a:	01 97       	sbiw	r24, 0x01	; 1
    1f0c:	a1 09       	sbc	r26, r1
    1f0e:	b1 09       	sbc	r27, r1
    1f10:	82 1b       	sub	r24, r18
    1f12:	93 0b       	sbc	r25, r19
    1f14:	a4 0b       	sbc	r26, r20
    1f16:	b5 0b       	sbc	r27, r21
    1f18:	81 30       	cpi	r24, 0x01	; 1
    1f1a:	f1 e0       	ldi	r31, 0x01	; 1
    1f1c:	9f 07       	cpc	r25, r31
    1f1e:	a1 05       	cpc	r26, r1
    1f20:	b1 05       	cpc	r27, r1
    1f22:	58 f0       	brcs	.+22     	; 0x1f3a <_ZN18ACAN2517FDSettingsC1ENS_10OscillatorEm17DataBitRateFactorm+0x734>
    1f24:	31 50       	subi	r19, 0x01	; 1
    1f26:	41 09       	sbc	r20, r1
    1f28:	51 09       	sbc	r21, r1
    1f2a:	28 0f       	add	r18, r24
    1f2c:	39 1f       	adc	r19, r25
    1f2e:	4a 1f       	adc	r20, r26
    1f30:	5b 1f       	adc	r21, r27
    1f32:	80 e0       	ldi	r24, 0x00	; 0
    1f34:	91 e0       	ldi	r25, 0x01	; 1
    1f36:	a0 e0       	ldi	r26, 0x00	; 0
    1f38:	b0 e0       	ldi	r27, 0x00	; 0
    1f3a:	e9 a5       	ldd	r30, Y+41	; 0x29
    1f3c:	fa a5       	ldd	r31, Y+42	; 0x2a
    1f3e:	16 87       	std	Z+14, r17	; 0x0e
    1f40:	05 87       	std	Z+13, r16	; 0x0d
    1f42:	90 8b       	std	Z+16, r25	; 0x10
    1f44:	87 87       	std	Z+15, r24	; 0x0f
    1f46:	21 8b       	std	Z+17, r18	; 0x11
    1f48:	22 8b       	std	Z+18, r18	; 0x12
    1f4a:	29 85       	ldd	r18, Y+9	; 0x09
    1f4c:	3a 85       	ldd	r19, Y+10	; 0x0a
    1f4e:	4b 85       	ldd	r20, Y+11	; 0x0b
    1f50:	5c 85       	ldd	r21, Y+12	; 0x0c
    1f52:	69 89       	ldd	r22, Y+17	; 0x11
    1f54:	7a 89       	ldd	r23, Y+18	; 0x12
    1f56:	8b 89       	ldd	r24, Y+19	; 0x13
    1f58:	9c 89       	ldd	r25, Y+20	; 0x14
    1f5a:	0e 94 c4 1b 	call	0x3788	; 0x3788 <__mulsi3>
    1f5e:	9b 01       	movw	r18, r22
    1f60:	ac 01       	movw	r20, r24
    1f62:	c7 01       	movw	r24, r14
    1f64:	b6 01       	movw	r22, r12
    1f66:	15 ce       	rjmp	.-982    	; 0x1b92 <_ZN18ACAN2517FDSettingsC1ENS_10OscillatorEm17DataBitRateFactorm+0x38c>
    1f68:	dc 01       	movw	r26, r24
    1f6a:	cb 01       	movw	r24, r22
    1f6c:	09 81       	ldd	r16, Y+1	; 0x01
    1f6e:	1a 81       	ldd	r17, Y+2	; 0x02
    1f70:	2b 81       	ldd	r18, Y+3	; 0x03
    1f72:	3c 81       	ldd	r19, Y+4	; 0x04
    1f74:	80 1b       	sub	r24, r16
    1f76:	91 0b       	sbc	r25, r17
    1f78:	a2 0b       	sbc	r26, r18
    1f7a:	b3 0b       	sbc	r27, r19
    1f7c:	6c 01       	movw	r12, r24
    1f7e:	7d 01       	movw	r14, r26
    1f80:	00 e0       	ldi	r16, 0x00	; 0
    1f82:	10 e0       	ldi	r17, 0x00	; 0
    1f84:	98 01       	movw	r18, r16
    1f86:	89 83       	std	Y+1, r24	; 0x01
    1f88:	da 82       	std	Y+2, r13	; 0x02
    1f8a:	ab 83       	std	Y+3, r26	; 0x03
    1f8c:	fc 82       	std	Y+4, r15	; 0x04
    1f8e:	0d 83       	std	Y+5, r16	; 0x05
    1f90:	1e 83       	std	Y+6, r17	; 0x06
    1f92:	2f 83       	std	Y+7, r18	; 0x07
    1f94:	38 87       	std	Y+8, r19	; 0x08
    1f96:	1e ce       	rjmp	.-964    	; 0x1bd4 <_ZN18ACAN2517FDSettingsC1ENS_10OscillatorEm17DataBitRateFactorm+0x3ce>

00001f98 <_ZNK18ACAN2517FDSettings42dataBitRateIsAMultipleOfArbitrationBitRateEv>:
    1f98:	cf 92       	push	r12
    1f9a:	df 92       	push	r13
    1f9c:	ef 92       	push	r14
    1f9e:	ff 92       	push	r15
    1fa0:	fc 01       	movw	r30, r24
    1fa2:	21 85       	ldd	r18, Z+9	; 0x09
    1fa4:	21 30       	cpi	r18, 0x01	; 1
    1fa6:	09 f1       	breq	.+66     	; 0x1fea <_ZNK18ACAN2517FDSettings42dataBitRateIsAMultipleOfArbitrationBitRateEv+0x52>
    1fa8:	a2 85       	ldd	r26, Z+10	; 0x0a
    1faa:	b0 e0       	ldi	r27, 0x00	; 0
    1fac:	11 96       	adiw	r26, 0x01	; 1
    1fae:	83 85       	ldd	r24, Z+11	; 0x0b
    1fb0:	a8 0f       	add	r26, r24
    1fb2:	b1 1d       	adc	r27, r1
    1fb4:	30 e0       	ldi	r19, 0x00	; 0
    1fb6:	0e 94 05 1c 	call	0x380a	; 0x380a <__usmulhisi3>
    1fba:	27 85       	ldd	r18, Z+15	; 0x0f
    1fbc:	30 89       	ldd	r19, Z+16	; 0x10
    1fbe:	2f 5f       	subi	r18, 0xFF	; 255
    1fc0:	3f 4f       	sbci	r19, 0xFF	; 255
    1fc2:	41 89       	ldd	r20, Z+17	; 0x11
    1fc4:	42 0f       	add	r20, r18
    1fc6:	53 2f       	mov	r21, r19
    1fc8:	51 1d       	adc	r21, r1
    1fca:	6a 01       	movw	r12, r20
    1fcc:	f1 2c       	mov	r15, r1
    1fce:	e1 2c       	mov	r14, r1
    1fd0:	21 e0       	ldi	r18, 0x01	; 1
    1fd2:	6c 15       	cp	r22, r12
    1fd4:	7d 05       	cpc	r23, r13
    1fd6:	8e 05       	cpc	r24, r14
    1fd8:	9f 05       	cpc	r25, r15
    1fda:	09 f0       	breq	.+2      	; 0x1fde <_ZNK18ACAN2517FDSettings42dataBitRateIsAMultipleOfArbitrationBitRateEv+0x46>
    1fdc:	20 e0       	ldi	r18, 0x00	; 0
    1fde:	82 2f       	mov	r24, r18
    1fe0:	ff 90       	pop	r15
    1fe2:	ef 90       	pop	r14
    1fe4:	df 90       	pop	r13
    1fe6:	cf 90       	pop	r12
    1fe8:	08 95       	ret
    1fea:	21 e0       	ldi	r18, 0x01	; 1
    1fec:	f8 cf       	rjmp	.-16     	; 0x1fde <_ZNK18ACAN2517FDSettings42dataBitRateIsAMultipleOfArbitrationBitRateEv+0x46>

00001fee <_ZNK18ACAN2517FDSettings24CANBitSettingConsistencyEv>:
    1fee:	cf 92       	push	r12
    1ff0:	df 92       	push	r13
    1ff2:	ef 92       	push	r14
    1ff4:	ff 92       	push	r15
    1ff6:	cf 93       	push	r28
    1ff8:	df 93       	push	r29
    1ffa:	ec 01       	movw	r28, r24
    1ffc:	8d 85       	ldd	r24, Y+13	; 0x0d
    1ffe:	9e 85       	ldd	r25, Y+14	; 0x0e
    2000:	00 97       	sbiw	r24, 0x00	; 0
    2002:	09 f4       	brne	.+2      	; 0x2006 <_ZNK18ACAN2517FDSettings24CANBitSettingConsistencyEv+0x18>
    2004:	49 c0       	rjmp	.+146    	; 0x2098 <_ZNK18ACAN2517FDSettings24CANBitSettingConsistencyEv+0xaa>
    2006:	c1 2c       	mov	r12, r1
    2008:	d1 2c       	mov	r13, r1
    200a:	76 01       	movw	r14, r12
    200c:	81 30       	cpi	r24, 0x01	; 1
    200e:	91 40       	sbci	r25, 0x01	; 1
    2010:	28 f0       	brcs	.+10     	; 0x201c <_ZNK18ACAN2517FDSettings24CANBitSettingConsistencyEv+0x2e>
    2012:	92 e0       	ldi	r25, 0x02	; 2
    2014:	c9 2e       	mov	r12, r25
    2016:	d1 2c       	mov	r13, r1
    2018:	e1 2c       	mov	r14, r1
    201a:	f1 2c       	mov	r15, r1
    201c:	2f 85       	ldd	r18, Y+15	; 0x0f
    201e:	38 89       	ldd	r19, Y+16	; 0x10
    2020:	22 30       	cpi	r18, 0x02	; 2
    2022:	31 05       	cpc	r19, r1
    2024:	08 f0       	brcs	.+2      	; 0x2028 <_ZNK18ACAN2517FDSettings24CANBitSettingConsistencyEv+0x3a>
    2026:	3d c0       	rjmp	.+122    	; 0x20a2 <_ZNK18ACAN2517FDSettings24CANBitSettingConsistencyEv+0xb4>
    2028:	68 94       	set
    202a:	c2 f8       	bld	r12, 2
    202c:	99 89       	ldd	r25, Y+17	; 0x11
    202e:	91 11       	cpse	r25, r1
    2030:	40 c0       	rjmp	.+128    	; 0x20b2 <_ZNK18ACAN2517FDSettings24CANBitSettingConsistencyEv+0xc4>
    2032:	68 94       	set
    2034:	c4 f8       	bld	r12, 4
    2036:	8a 89       	ldd	r24, Y+18	; 0x12
    2038:	81 11       	cpse	r24, r1
    203a:	41 c0       	rjmp	.+130    	; 0x20be <_ZNK18ACAN2517FDSettings24CANBitSettingConsistencyEv+0xd0>
    203c:	68 94       	set
    203e:	c6 f8       	bld	r12, 6
    2040:	82 17       	cp	r24, r18
    2042:	13 06       	cpc	r1, r19
    2044:	19 f0       	breq	.+6      	; 0x204c <_ZNK18ACAN2517FDSettings24CANBitSettingConsistencyEv+0x5e>
    2046:	10 f0       	brcs	.+4      	; 0x204c <_ZNK18ACAN2517FDSettings24CANBitSettingConsistencyEv+0x5e>
    2048:	68 94       	set
    204a:	d0 f8       	bld	r13, 0
    204c:	98 17       	cp	r25, r24
    204e:	10 f4       	brcc	.+4      	; 0x2054 <_ZNK18ACAN2517FDSettings24CANBitSettingConsistencyEv+0x66>
    2050:	68 94       	set
    2052:	d1 f8       	bld	r13, 1
    2054:	89 85       	ldd	r24, Y+9	; 0x09
    2056:	81 30       	cpi	r24, 0x01	; 1
    2058:	b1 f0       	breq	.+44     	; 0x2086 <_ZNK18ACAN2517FDSettings24CANBitSettingConsistencyEv+0x98>
    205a:	ce 01       	movw	r24, r28
    205c:	0e 94 cc 0f 	call	0x1f98	; 0x1f98 <_ZNK18ACAN2517FDSettings42dataBitRateIsAMultipleOfArbitrationBitRateEv>
    2060:	81 11       	cpse	r24, r1
    2062:	02 c0       	rjmp	.+4      	; 0x2068 <_ZNK18ACAN2517FDSettings24CANBitSettingConsistencyEv+0x7a>
    2064:	68 94       	set
    2066:	d2 f8       	bld	r13, 2
    2068:	2a 85       	ldd	r18, Y+10	; 0x0a
    206a:	22 30       	cpi	r18, 0x02	; 2
    206c:	70 f5       	brcc	.+92     	; 0x20ca <_ZNK18ACAN2517FDSettings24CANBitSettingConsistencyEv+0xdc>
    206e:	68 94       	set
    2070:	d3 f8       	bld	r13, 3
    2072:	9b 85       	ldd	r25, Y+11	; 0x0b
    2074:	91 11       	cpse	r25, r1
    2076:	2e c0       	rjmp	.+92     	; 0x20d4 <_ZNK18ACAN2517FDSettings24CANBitSettingConsistencyEv+0xe6>
    2078:	68 94       	set
    207a:	d5 f8       	bld	r13, 5
    207c:	8c 85       	ldd	r24, Y+12	; 0x0c
    207e:	81 11       	cpse	r24, r1
    2080:	2e c0       	rjmp	.+92     	; 0x20de <_ZNK18ACAN2517FDSettings24CANBitSettingConsistencyEv+0xf0>
    2082:	68 94       	set
    2084:	d7 f8       	bld	r13, 7
    2086:	c7 01       	movw	r24, r14
    2088:	b6 01       	movw	r22, r12
    208a:	df 91       	pop	r29
    208c:	cf 91       	pop	r28
    208e:	ff 90       	pop	r15
    2090:	ef 90       	pop	r14
    2092:	df 90       	pop	r13
    2094:	cf 90       	pop	r12
    2096:	08 95       	ret
    2098:	c1 2c       	mov	r12, r1
    209a:	d1 2c       	mov	r13, r1
    209c:	76 01       	movw	r14, r12
    209e:	c3 94       	inc	r12
    20a0:	bd cf       	rjmp	.-134    	; 0x201c <_ZNK18ACAN2517FDSettings24CANBitSettingConsistencyEv+0x2e>
    20a2:	21 30       	cpi	r18, 0x01	; 1
    20a4:	81 e0       	ldi	r24, 0x01	; 1
    20a6:	38 07       	cpc	r19, r24
    20a8:	08 f4       	brcc	.+2      	; 0x20ac <_ZNK18ACAN2517FDSettings24CANBitSettingConsistencyEv+0xbe>
    20aa:	c0 cf       	rjmp	.-128    	; 0x202c <_ZNK18ACAN2517FDSettings24CANBitSettingConsistencyEv+0x3e>
    20ac:	68 94       	set
    20ae:	c3 f8       	bld	r12, 3
    20b0:	bd cf       	rjmp	.-134    	; 0x202c <_ZNK18ACAN2517FDSettings24CANBitSettingConsistencyEv+0x3e>
    20b2:	91 38       	cpi	r25, 0x81	; 129
    20b4:	08 f4       	brcc	.+2      	; 0x20b8 <_ZNK18ACAN2517FDSettings24CANBitSettingConsistencyEv+0xca>
    20b6:	bf cf       	rjmp	.-130    	; 0x2036 <_ZNK18ACAN2517FDSettings24CANBitSettingConsistencyEv+0x48>
    20b8:	68 94       	set
    20ba:	c5 f8       	bld	r12, 5
    20bc:	bc cf       	rjmp	.-136    	; 0x2036 <_ZNK18ACAN2517FDSettings24CANBitSettingConsistencyEv+0x48>
    20be:	81 38       	cpi	r24, 0x81	; 129
    20c0:	08 f4       	brcc	.+2      	; 0x20c4 <_ZNK18ACAN2517FDSettings24CANBitSettingConsistencyEv+0xd6>
    20c2:	be cf       	rjmp	.-132    	; 0x2040 <_ZNK18ACAN2517FDSettings24CANBitSettingConsistencyEv+0x52>
    20c4:	68 94       	set
    20c6:	c7 f8       	bld	r12, 7
    20c8:	bb cf       	rjmp	.-138    	; 0x2040 <_ZNK18ACAN2517FDSettings24CANBitSettingConsistencyEv+0x52>
    20ca:	21 32       	cpi	r18, 0x21	; 33
    20cc:	90 f2       	brcs	.-92     	; 0x2072 <_ZNK18ACAN2517FDSettings24CANBitSettingConsistencyEv+0x84>
    20ce:	68 94       	set
    20d0:	d4 f8       	bld	r13, 4
    20d2:	cf cf       	rjmp	.-98     	; 0x2072 <_ZNK18ACAN2517FDSettings24CANBitSettingConsistencyEv+0x84>
    20d4:	91 31       	cpi	r25, 0x11	; 17
    20d6:	90 f2       	brcs	.-92     	; 0x207c <_ZNK18ACAN2517FDSettings24CANBitSettingConsistencyEv+0x8e>
    20d8:	68 94       	set
    20da:	d6 f8       	bld	r13, 6
    20dc:	cf cf       	rjmp	.-98     	; 0x207c <_ZNK18ACAN2517FDSettings24CANBitSettingConsistencyEv+0x8e>
    20de:	81 31       	cpi	r24, 0x11	; 17
    20e0:	10 f0       	brcs	.+4      	; 0x20e6 <_ZNK18ACAN2517FDSettings24CANBitSettingConsistencyEv+0xf8>
    20e2:	68 94       	set
    20e4:	e0 f8       	bld	r14, 0
    20e6:	28 17       	cp	r18, r24
    20e8:	10 f4       	brcc	.+4      	; 0x20ee <_ZNK18ACAN2517FDSettings24CANBitSettingConsistencyEv+0x100>
    20ea:	68 94       	set
    20ec:	e1 f8       	bld	r14, 1
    20ee:	98 17       	cp	r25, r24
    20f0:	50 f6       	brcc	.-108    	; 0x2086 <_ZNK18ACAN2517FDSettings24CANBitSettingConsistencyEv+0x98>
    20f2:	68 94       	set
    20f4:	e2 f8       	bld	r14, 2
    20f6:	c7 cf       	rjmp	.-114    	; 0x2086 <_ZNK18ACAN2517FDSettings24CANBitSettingConsistencyEv+0x98>

000020f8 <_ZNK18ACAN2517FDSettings8ramUsageEv>:
    20f8:	cf 92       	push	r12
    20fa:	df 92       	push	r13
    20fc:	ef 92       	push	r14
    20fe:	ff 92       	push	r15
    2100:	fc 01       	movw	r30, r24
    2102:	a1 a1       	ldd	r26, Z+33	; 0x21
    2104:	b0 e0       	ldi	r27, 0x00	; 0
    2106:	aa 57       	subi	r26, 0x7A	; 122
    2108:	be 4f       	sbci	r27, 0xFE	; 254
    210a:	2c 91       	ld	r18, X
    210c:	a0 a1       	ldd	r26, Z+32	; 0x20
    210e:	30 e0       	ldi	r19, 0x00	; 0
    2110:	b0 e0       	ldi	r27, 0x00	; 0
    2112:	0e 94 f6 1b 	call	0x37ec	; 0x37ec <__umulhisi3>
    2116:	6b 01       	movw	r12, r22
    2118:	7c 01       	movw	r14, r24
    211a:	a6 a1       	ldd	r26, Z+38	; 0x26
    211c:	b0 e0       	ldi	r27, 0x00	; 0
    211e:	aa 57       	subi	r26, 0x7A	; 122
    2120:	be 4f       	sbci	r27, 0xFE	; 254
    2122:	2c 91       	ld	r18, X
    2124:	a7 a1       	ldd	r26, Z+39	; 0x27
    2126:	30 e0       	ldi	r19, 0x00	; 0
    2128:	b0 e0       	ldi	r27, 0x00	; 0
    212a:	0e 94 f6 1b 	call	0x37ec	; 0x37ec <__umulhisi3>
    212e:	c6 0e       	add	r12, r22
    2130:	d7 1e       	adc	r13, r23
    2132:	e8 1e       	adc	r14, r24
    2134:	f9 1e       	adc	r15, r25
    2136:	a5 8d       	ldd	r26, Z+29	; 0x1d
    2138:	b0 e0       	ldi	r27, 0x00	; 0
    213a:	aa 57       	subi	r26, 0x7A	; 122
    213c:	be 4f       	sbci	r27, 0xFE	; 254
    213e:	2c 91       	ld	r18, X
    2140:	a4 8d       	ldd	r26, Z+28	; 0x1c
    2142:	30 e0       	ldi	r19, 0x00	; 0
    2144:	b0 e0       	ldi	r27, 0x00	; 0
    2146:	0e 94 f6 1b 	call	0x37ec	; 0x37ec <__umulhisi3>
    214a:	6c 0d       	add	r22, r12
    214c:	7d 1d       	adc	r23, r13
    214e:	8e 1d       	adc	r24, r14
    2150:	9f 1d       	adc	r25, r15
    2152:	ff 90       	pop	r15
    2154:	ef 90       	pop	r14
    2156:	df 90       	pop	r13
    2158:	cf 90       	pop	r12
    215a:	08 95       	ret

0000215c <_ZN18ACAN2517FDSettings20objectSizeForPayloadENS_11PayloadSizeE>:
    215c:	e8 2f       	mov	r30, r24
    215e:	f0 e0       	ldi	r31, 0x00	; 0
    2160:	ea 57       	subi	r30, 0x7A	; 122
    2162:	fe 4f       	sbci	r31, 0xFE	; 254
    2164:	60 81       	ld	r22, Z
    2166:	70 e0       	ldi	r23, 0x00	; 0
    2168:	90 e0       	ldi	r25, 0x00	; 0
    216a:	80 e0       	ldi	r24, 0x00	; 0
    216c:	08 95       	ret

0000216e <_ZN8SPIClass5beginEv>:
    216e:	cf 93       	push	r28
    2170:	cf b7       	in	r28, 0x3f	; 63
    2172:	f8 94       	cli
    2174:	80 91 8f 02 	lds	r24, 0x028F	; 0x80028f <_ZN8SPIClass11initializedE>
    2178:	81 11       	cpse	r24, r1
    217a:	27 c0       	rjmp	.+78     	; 0x21ca <_ZN8SPIClass5beginEv+0x5c>
    217c:	ea e9       	ldi	r30, 0x9A	; 154
    217e:	f0 e0       	ldi	r31, 0x00	; 0
    2180:	84 91       	lpm	r24, Z
    2182:	e6 e8       	ldi	r30, 0x86	; 134
    2184:	f0 e0       	ldi	r31, 0x00	; 0
    2186:	94 91       	lpm	r25, Z
    2188:	e8 2f       	mov	r30, r24
    218a:	f0 e0       	ldi	r31, 0x00	; 0
    218c:	ee 0f       	add	r30, r30
    218e:	ff 1f       	adc	r31, r31
    2190:	e2 55       	subi	r30, 0x52	; 82
    2192:	ff 4f       	sbci	r31, 0xFF	; 255
    2194:	a5 91       	lpm	r26, Z+
    2196:	b4 91       	lpm	r27, Z
    2198:	ec 91       	ld	r30, X
    219a:	e9 23       	and	r30, r25
    219c:	21 f4       	brne	.+8      	; 0x21a6 <_ZN8SPIClass5beginEv+0x38>
    219e:	61 e0       	ldi	r22, 0x01	; 1
    21a0:	8a e0       	ldi	r24, 0x0A	; 10
    21a2:	0e 94 6f 13 	call	0x26de	; 0x26de <digitalWrite>
    21a6:	61 e0       	ldi	r22, 0x01	; 1
    21a8:	8a e0       	ldi	r24, 0x0A	; 10
    21aa:	0e 94 33 13 	call	0x2666	; 0x2666 <pinMode>
    21ae:	8c b5       	in	r24, 0x2c	; 44
    21b0:	80 61       	ori	r24, 0x10	; 16
    21b2:	8c bd       	out	0x2c, r24	; 44
    21b4:	8c b5       	in	r24, 0x2c	; 44
    21b6:	80 64       	ori	r24, 0x40	; 64
    21b8:	8c bd       	out	0x2c, r24	; 44
    21ba:	61 e0       	ldi	r22, 0x01	; 1
    21bc:	8d e0       	ldi	r24, 0x0D	; 13
    21be:	0e 94 33 13 	call	0x2666	; 0x2666 <pinMode>
    21c2:	61 e0       	ldi	r22, 0x01	; 1
    21c4:	8b e0       	ldi	r24, 0x0B	; 11
    21c6:	0e 94 33 13 	call	0x2666	; 0x2666 <pinMode>
    21ca:	80 91 8f 02 	lds	r24, 0x028F	; 0x80028f <_ZN8SPIClass11initializedE>
    21ce:	8f 5f       	subi	r24, 0xFF	; 255
    21d0:	80 93 8f 02 	sts	0x028F, r24	; 0x80028f <_ZN8SPIClass11initializedE>
    21d4:	cf bf       	out	0x3f, r28	; 63
    21d6:	cf 91       	pop	r28
    21d8:	08 95       	ret

000021da <_ZN8SPIClass14usingInterruptEh>:
    21da:	2f b7       	in	r18, 0x3f	; 63
    21dc:	f8 94       	cli
    21de:	91 e0       	ldi	r25, 0x01	; 1
    21e0:	88 23       	and	r24, r24
    21e2:	39 f0       	breq	.+14     	; 0x21f2 <_ZN8SPIClass14usingInterruptEh+0x18>
    21e4:	92 e0       	ldi	r25, 0x02	; 2
    21e6:	81 30       	cpi	r24, 0x01	; 1
    21e8:	21 f0       	breq	.+8      	; 0x21f2 <_ZN8SPIClass14usingInterruptEh+0x18>
    21ea:	82 e0       	ldi	r24, 0x02	; 2
    21ec:	80 93 8e 02 	sts	0x028E, r24	; 0x80028e <_ZN8SPIClass13interruptModeE>
    21f0:	90 e0       	ldi	r25, 0x00	; 0
    21f2:	80 91 8d 02 	lds	r24, 0x028D	; 0x80028d <_ZN8SPIClass13interruptMaskE>
    21f6:	89 2b       	or	r24, r25
    21f8:	80 93 8d 02 	sts	0x028D, r24	; 0x80028d <_ZN8SPIClass13interruptMaskE>
    21fc:	80 91 8e 02 	lds	r24, 0x028E	; 0x80028e <_ZN8SPIClass13interruptModeE>
    2200:	81 11       	cpse	r24, r1
    2202:	03 c0       	rjmp	.+6      	; 0x220a <_ZN8SPIClass14usingInterruptEh+0x30>
    2204:	81 e0       	ldi	r24, 0x01	; 1
    2206:	80 93 8e 02 	sts	0x028E, r24	; 0x80028e <_ZN8SPIClass13interruptModeE>
    220a:	2f bf       	out	0x3f, r18	; 63
    220c:	08 95       	ret

0000220e <TimerISR>:
    220e:	80 e0       	ldi	r24, 0x00	; 0
    2210:	0c 94 0a 17 	jmp	0x2e14	; 0x2e14 <IncrementCounter>

00002214 <FuncTask1>:
    2214:	ef 92       	push	r14
    2216:	ff 92       	push	r15
    2218:	0f 93       	push	r16
    221a:	1f 93       	push	r17
    221c:	cf 93       	push	r28
    221e:	df 93       	push	r29
    2220:	cd b7       	in	r28, 0x3d	; 61
    2222:	de b7       	in	r29, 0x3e	; 62
    2224:	28 97       	sbiw	r28, 0x08	; 8
    2226:	0f b6       	in	r0, 0x3f	; 63
    2228:	f8 94       	cli
    222a:	de bf       	out	0x3e, r29	; 62
    222c:	0f be       	out	0x3f, r0	; 63
    222e:	cd bf       	out	0x3d, r28	; 61
    2230:	0e 94 af 11 	call	0x235e	; 0x235e <CAN_checkMsg>
    2234:	81 30       	cpi	r24, 0x01	; 1
    2236:	81 f5       	brne	.+96     	; 0x2298 <FuncTask1+0x84>
    2238:	8e e8       	ldi	r24, 0x8E	; 142
    223a:	91 e0       	ldi	r25, 0x01	; 1
    223c:	9f 93       	push	r25
    223e:	8f 93       	push	r24
    2240:	0e 94 f0 11 	call	0x23e0	; 0x23e0 <printfSerial>
    2244:	ce 01       	movw	r24, r28
    2246:	01 96       	adiw	r24, 0x01	; 1
    2248:	0e 94 b3 11 	call	0x2366	; 0x2366 <CAN_readMsg>
    224c:	8d 81       	ldd	r24, Y+5	; 0x05
    224e:	8f 93       	push	r24
    2250:	8c 81       	ldd	r24, Y+4	; 0x04
    2252:	8f 93       	push	r24
    2254:	8b 81       	ldd	r24, Y+3	; 0x03
    2256:	8f 93       	push	r24
    2258:	8a 81       	ldd	r24, Y+2	; 0x02
    225a:	8f 93       	push	r24
    225c:	82 ec       	ldi	r24, 0xC2	; 194
    225e:	91 e0       	ldi	r25, 0x01	; 1
    2260:	9f 93       	push	r25
    2262:	8f 93       	push	r24
    2264:	0e 94 f0 11 	call	0x23e0	; 0x23e0 <printfSerial>
    2268:	0f b6       	in	r0, 0x3f	; 63
    226a:	f8 94       	cli
    226c:	de bf       	out	0x3e, r29	; 62
    226e:	0f be       	out	0x3f, r0	; 63
    2270:	cd bf       	out	0x3d, r28	; 61
    2272:	10 e0       	ldi	r17, 0x00	; 0
    2274:	00 e0       	ldi	r16, 0x00	; 0
    2276:	8a ed       	ldi	r24, 0xDA	; 218
    2278:	e8 2e       	mov	r14, r24
    227a:	81 e0       	ldi	r24, 0x01	; 1
    227c:	f8 2e       	mov	r15, r24
    227e:	89 81       	ldd	r24, Y+1	; 0x01
    2280:	80 17       	cp	r24, r16
    2282:	11 06       	cpc	r1, r17
    2284:	09 f0       	breq	.+2      	; 0x2288 <FuncTask1+0x74>
    2286:	bc f4       	brge	.+46     	; 0x22b6 <FuncTask1+0xa2>
    2288:	8e ee       	ldi	r24, 0xEE	; 238
    228a:	91 e0       	ldi	r25, 0x01	; 1
    228c:	9f 93       	push	r25
    228e:	8f 93       	push	r24
    2290:	0e 94 f0 11 	call	0x23e0	; 0x23e0 <printfSerial>
    2294:	0f 90       	pop	r0
    2296:	0f 90       	pop	r0
    2298:	0e 94 f0 16 	call	0x2de0	; 0x2de0 <TerminateTask>
    229c:	28 96       	adiw	r28, 0x08	; 8
    229e:	0f b6       	in	r0, 0x3f	; 63
    22a0:	f8 94       	cli
    22a2:	de bf       	out	0x3e, r29	; 62
    22a4:	0f be       	out	0x3f, r0	; 63
    22a6:	cd bf       	out	0x3d, r28	; 61
    22a8:	df 91       	pop	r29
    22aa:	cf 91       	pop	r28
    22ac:	1f 91       	pop	r17
    22ae:	0f 91       	pop	r16
    22b0:	ff 90       	pop	r15
    22b2:	ef 90       	pop	r14
    22b4:	08 95       	ret
    22b6:	ee 81       	ldd	r30, Y+6	; 0x06
    22b8:	ff 81       	ldd	r31, Y+7	; 0x07
    22ba:	e0 0f       	add	r30, r16
    22bc:	f1 1f       	adc	r31, r17
    22be:	80 81       	ld	r24, Z
    22c0:	1f 92       	push	r1
    22c2:	8f 93       	push	r24
    22c4:	ff 92       	push	r15
    22c6:	ef 92       	push	r14
    22c8:	0e 94 f0 11 	call	0x23e0	; 0x23e0 <printfSerial>
    22cc:	0f 5f       	subi	r16, 0xFF	; 255
    22ce:	1f 4f       	sbci	r17, 0xFF	; 255
    22d0:	0f 90       	pop	r0
    22d2:	0f 90       	pop	r0
    22d4:	0f 90       	pop	r0
    22d6:	0f 90       	pop	r0
    22d8:	d2 cf       	rjmp	.-92     	; 0x227e <FuncTask1+0x6a>

000022da <_ZZ5beginvENUlvE_4_FUNEv>:
    22da:	81 e9       	ldi	r24, 0x91	; 145
    22dc:	92 e0       	ldi	r25, 0x02	; 2
    22de:	0c 94 bd 06 	jmp	0xd7a	; 0xd7a <_ZN10ACAN2517FD3isrEv>

000022e2 <_Z5beginv>:
    22e2:	cf 92       	push	r12
    22e4:	df 92       	push	r13
    22e6:	ef 92       	push	r14
    22e8:	ff 92       	push	r15
    22ea:	0f 93       	push	r16
    22ec:	cf 93       	push	r28
    22ee:	df 93       	push	r29
    22f0:	cd b7       	in	r28, 0x3d	; 61
    22f2:	de b7       	in	r29, 0x3e	; 62
    22f4:	a8 97       	sbiw	r28, 0x28	; 40
    22f6:	0f b6       	in	r0, 0x3f	; 63
    22f8:	f8 94       	cli
    22fa:	de bf       	out	0x3e, r29	; 62
    22fc:	0f be       	out	0x3f, r0	; 63
    22fe:	cd bf       	out	0x3d, r28	; 61
    2300:	88 ee       	ldi	r24, 0xE8	; 232
    2302:	c8 2e       	mov	r12, r24
    2304:	83 e0       	ldi	r24, 0x03	; 3
    2306:	d8 2e       	mov	r13, r24
    2308:	e1 2c       	mov	r14, r1
    230a:	f1 2c       	mov	r15, r1
    230c:	01 e0       	ldi	r16, 0x01	; 1
    230e:	28 e4       	ldi	r18, 0x48	; 72
    2310:	38 ee       	ldi	r19, 0xE8	; 232
    2312:	41 e0       	ldi	r20, 0x01	; 1
    2314:	50 e0       	ldi	r21, 0x00	; 0
    2316:	64 e0       	ldi	r22, 0x04	; 4
    2318:	ce 01       	movw	r24, r28
    231a:	01 96       	adiw	r24, 0x01	; 1
    231c:	0e 94 03 0c 	call	0x1806	; 0x1806 <_ZN18ACAN2517FDSettingsC1ENS_10OscillatorEm17DataBitRateFactorm>
    2320:	1a 8e       	std	Y+26, r1	; 0x1a
    2322:	81 e0       	ldi	r24, 0x01	; 1
    2324:	90 e0       	ldi	r25, 0x00	; 0
    2326:	9c 8f       	std	Y+28, r25	; 0x1c
    2328:	8b 8f       	std	Y+27, r24	; 0x1b
    232a:	9e a3       	std	Y+38, r25	; 0x26
    232c:	8d a3       	std	Y+37, r24	; 0x25
    232e:	4d e6       	ldi	r20, 0x6D	; 109
    2330:	51 e1       	ldi	r21, 0x11	; 17
    2332:	be 01       	movw	r22, r28
    2334:	6f 5f       	subi	r22, 0xFF	; 255
    2336:	7f 4f       	sbci	r23, 0xFF	; 255
    2338:	81 e9       	ldi	r24, 0x91	; 145
    233a:	92 e0       	ldi	r25, 0x02	; 2
    233c:	0e 94 a0 0b 	call	0x1740	; 0x1740 <_ZN10ACAN2517FD5beginERK18ACAN2517FDSettingsPFvvE>
    2340:	86 2f       	mov	r24, r22
    2342:	a8 96       	adiw	r28, 0x28	; 40
    2344:	0f b6       	in	r0, 0x3f	; 63
    2346:	f8 94       	cli
    2348:	de bf       	out	0x3e, r29	; 62
    234a:	0f be       	out	0x3f, r0	; 63
    234c:	cd bf       	out	0x3d, r28	; 61
    234e:	df 91       	pop	r29
    2350:	cf 91       	pop	r28
    2352:	0f 91       	pop	r16
    2354:	ff 90       	pop	r15
    2356:	ef 90       	pop	r14
    2358:	df 90       	pop	r13
    235a:	cf 90       	pop	r12
    235c:	08 95       	ret

0000235e <CAN_checkMsg>:
    235e:	81 e9       	ldi	r24, 0x91	; 145
    2360:	92 e0       	ldi	r25, 0x02	; 2
    2362:	0c 94 10 03 	jmp	0x620	; 0x620 <_ZN10ACAN2517FD9availableEv>

00002366 <CAN_readMsg>:
    2366:	0f 93       	push	r16
    2368:	1f 93       	push	r17
    236a:	cf 93       	push	r28
    236c:	df 93       	push	r29
    236e:	cd b7       	in	r28, 0x3d	; 61
    2370:	de b7       	in	r29, 0x3e	; 62
    2372:	c8 54       	subi	r28, 0x48	; 72
    2374:	d1 09       	sbc	r29, r1
    2376:	0f b6       	in	r0, 0x3f	; 63
    2378:	f8 94       	cli
    237a:	de bf       	out	0x3e, r29	; 62
    237c:	0f be       	out	0x3f, r0	; 63
    237e:	cd bf       	out	0x3d, r28	; 61
    2380:	8c 01       	movw	r16, r24
    2382:	ce 01       	movw	r24, r28
    2384:	01 96       	adiw	r24, 0x01	; 1
    2386:	0e 94 a1 01 	call	0x342	; 0x342 <_ZN12CANFDMessageC1Ev>
    238a:	81 e9       	ldi	r24, 0x91	; 145
    238c:	92 e0       	ldi	r25, 0x02	; 2
    238e:	0e 94 10 03 	call	0x620	; 0x620 <_ZN10ACAN2517FD9availableEv>
    2392:	88 23       	and	r24, r24
    2394:	19 f1       	breq	.+70     	; 0x23dc <CAN_readMsg+0x76>
    2396:	be 01       	movw	r22, r28
    2398:	6f 5f       	subi	r22, 0xFF	; 255
    239a:	7f 4f       	sbci	r23, 0xFF	; 255
    239c:	81 e9       	ldi	r24, 0x91	; 145
    239e:	92 e0       	ldi	r25, 0x02	; 2
    23a0:	0e 94 bf 06 	call	0xd7e	; 0xd7e <_ZN10ACAN2517FD7receiveER12CANFDMessage>
    23a4:	89 81       	ldd	r24, Y+1	; 0x01
    23a6:	9a 81       	ldd	r25, Y+2	; 0x02
    23a8:	ab 81       	ldd	r26, Y+3	; 0x03
    23aa:	bc 81       	ldd	r27, Y+4	; 0x04
    23ac:	f8 01       	movw	r30, r16
    23ae:	81 83       	std	Z+1, r24	; 0x01
    23b0:	92 83       	std	Z+2, r25	; 0x02
    23b2:	a3 83       	std	Z+3, r26	; 0x03
    23b4:	b4 83       	std	Z+4, r27	; 0x04
    23b6:	88 85       	ldd	r24, Y+8	; 0x08
    23b8:	80 83       	st	Z, r24
    23ba:	ce 01       	movw	r24, r28
    23bc:	09 96       	adiw	r24, 0x09	; 9
    23be:	96 83       	std	Z+6, r25	; 0x06
    23c0:	85 83       	std	Z+5, r24	; 0x05
    23c2:	81 e0       	ldi	r24, 0x01	; 1
    23c4:	c8 5b       	subi	r28, 0xB8	; 184
    23c6:	df 4f       	sbci	r29, 0xFF	; 255
    23c8:	0f b6       	in	r0, 0x3f	; 63
    23ca:	f8 94       	cli
    23cc:	de bf       	out	0x3e, r29	; 62
    23ce:	0f be       	out	0x3f, r0	; 63
    23d0:	cd bf       	out	0x3d, r28	; 61
    23d2:	df 91       	pop	r29
    23d4:	cf 91       	pop	r28
    23d6:	1f 91       	pop	r17
    23d8:	0f 91       	pop	r16
    23da:	08 95       	ret
    23dc:	80 e0       	ldi	r24, 0x00	; 0
    23de:	f2 cf       	rjmp	.-28     	; 0x23c4 <CAN_readMsg+0x5e>

000023e0 <printfSerial>:
    23e0:	cf 93       	push	r28
    23e2:	df 93       	push	r29
    23e4:	cd b7       	in	r28, 0x3d	; 61
    23e6:	de b7       	in	r29, 0x3e	; 62
    23e8:	c0 58       	subi	r28, 0x80	; 128
    23ea:	d1 09       	sbc	r29, r1
    23ec:	0f b6       	in	r0, 0x3f	; 63
    23ee:	f8 94       	cli
    23f0:	de bf       	out	0x3e, r29	; 62
    23f2:	0f be       	out	0x3f, r0	; 63
    23f4:	cd bf       	out	0x3d, r28	; 61
    23f6:	9e 01       	movw	r18, r28
    23f8:	2b 57       	subi	r18, 0x7B	; 123
    23fa:	3f 4f       	sbci	r19, 0xFF	; 255
    23fc:	f9 01       	movw	r30, r18
    23fe:	41 91       	ld	r20, Z+
    2400:	51 91       	ld	r21, Z+
    2402:	9f 01       	movw	r18, r30
    2404:	60 e8       	ldi	r22, 0x80	; 128
    2406:	70 e0       	ldi	r23, 0x00	; 0
    2408:	ce 01       	movw	r24, r28
    240a:	01 96       	adiw	r24, 0x01	; 1
    240c:	0e 94 05 1e 	call	0x3c0a	; 0x3c0a <vsnprintf>
    2410:	be 01       	movw	r22, r28
    2412:	6f 5f       	subi	r22, 0xFF	; 255
    2414:	7f 4f       	sbci	r23, 0xFF	; 255
    2416:	85 ee       	ldi	r24, 0xE5	; 229
    2418:	92 e0       	ldi	r25, 0x02	; 2
    241a:	0e 94 03 16 	call	0x2c06	; 0x2c06 <_ZN5Print5printEPKc>
    241e:	c0 58       	subi	r28, 0x80	; 128
    2420:	df 4f       	sbci	r29, 0xFF	; 255
    2422:	0f b6       	in	r0, 0x3f	; 63
    2424:	f8 94       	cli
    2426:	de bf       	out	0x3e, r29	; 62
    2428:	0f be       	out	0x3f, r0	; 63
    242a:	cd bf       	out	0x3d, r28	; 61
    242c:	df 91       	pop	r29
    242e:	cf 91       	pop	r28
    2430:	08 95       	ret

00002432 <setup>:
    2432:	cf 93       	push	r28
    2434:	df 93       	push	r29
    2436:	26 e0       	ldi	r18, 0x06	; 6
    2438:	40 e0       	ldi	r20, 0x00	; 0
    243a:	52 ec       	ldi	r21, 0xC2	; 194
    243c:	61 e0       	ldi	r22, 0x01	; 1
    243e:	70 e0       	ldi	r23, 0x00	; 0
    2440:	85 ee       	ldi	r24, 0xE5	; 229
    2442:	92 e0       	ldi	r25, 0x02	; 2
    2444:	0e 94 d8 14 	call	0x29b0	; 0x29b0 <_ZN14HardwareSerial5beginEmh>
    2448:	0e 94 b7 10 	call	0x216e	; 0x216e <_ZN8SPIClass5beginEv>
    244c:	81 ee       	ldi	r24, 0xE1	; 225
    244e:	91 e0       	ldi	r25, 0x01	; 1
    2450:	9f 93       	push	r25
    2452:	8f 93       	push	r24
    2454:	0e 94 f0 11 	call	0x23e0	; 0x23e0 <printfSerial>
    2458:	0f 90       	pop	r0
    245a:	0f 90       	pop	r0
    245c:	c0 ef       	ldi	r28, 0xF0	; 240
    245e:	d1 e0       	ldi	r29, 0x01	; 1
    2460:	0e 94 71 11 	call	0x22e2	; 0x22e2 <_Z5beginv>
    2464:	88 23       	and	r24, r24
    2466:	39 f0       	breq	.+14     	; 0x2476 <setup+0x44>
    2468:	df 93       	push	r29
    246a:	cf 93       	push	r28
    246c:	0e 94 f0 11 	call	0x23e0	; 0x23e0 <printfSerial>
    2470:	0f 90       	pop	r0
    2472:	0f 90       	pop	r0
    2474:	f5 cf       	rjmp	.-22     	; 0x2460 <setup+0x2e>
    2476:	60 e1       	ldi	r22, 0x10	; 16
    2478:	77 e2       	ldi	r23, 0x27	; 39
    247a:	80 e0       	ldi	r24, 0x00	; 0
    247c:	90 e0       	ldi	r25, 0x00	; 0
    247e:	0e 94 0b 16 	call	0x2c16	; 0x2c16 <OsEE_atmega_startTimer1>
    2482:	8b ef       	ldi	r24, 0xFB	; 251
    2484:	91 e0       	ldi	r25, 0x01	; 1
    2486:	9f 93       	push	r25
    2488:	8f 93       	push	r24
    248a:	0e 94 f0 11 	call	0x23e0	; 0x23e0 <printfSerial>
    248e:	0f 90       	pop	r0
    2490:	0f 90       	pop	r0
    2492:	df 91       	pop	r29
    2494:	cf 91       	pop	r28
    2496:	08 95       	ret

00002498 <main>:
    2498:	81 e0       	ldi	r24, 0x01	; 1
    249a:	88 b9       	out	0x08, r24	; 8
    249c:	92 e0       	ldi	r25, 0x02	; 2
    249e:	90 93 68 00 	sts	0x0068, r25	; 0x800068 <__DATA_REGION_ORIGIN__+0x8>
    24a2:	80 93 6c 00 	sts	0x006C, r24	; 0x80006c <__DATA_REGION_ORIGIN__+0xc>
    24a6:	8f ef       	ldi	r24, 0xFF	; 255
    24a8:	8c bb       	out	0x1c, r24	; 28
    24aa:	78 94       	sei
    24ac:	0e 94 cf 12 	call	0x259e	; 0x259e <init>
    24b0:	0e 94 19 12 	call	0x2432	; 0x2432 <setup>
    24b4:	80 e0       	ldi	r24, 0x00	; 0
    24b6:	0e 94 69 16 	call	0x2cd2	; 0x2cd2 <StartOS>
    24ba:	90 e0       	ldi	r25, 0x00	; 0
    24bc:	80 e0       	ldi	r24, 0x00	; 0
    24be:	08 95       	ret

000024c0 <_GLOBAL__sub_I_CAN>:
    24c0:	22 e0       	ldi	r18, 0x02	; 2
    24c2:	40 e9       	ldi	r20, 0x90	; 144
    24c4:	52 e0       	ldi	r21, 0x02	; 2
    24c6:	69 e0       	ldi	r22, 0x09	; 9
    24c8:	81 e9       	ldi	r24, 0x91	; 145
    24ca:	92 e0       	ldi	r25, 0x02	; 2
    24cc:	0c 94 d7 02 	jmp	0x5ae	; 0x5ae <_ZN10ACAN2517FDC1EhR8SPIClassh>

000024d0 <_GLOBAL__sub_D_CAN>:
    24d0:	80 91 b4 02 	lds	r24, 0x02B4	; 0x8002b4 <CAN+0x23>
    24d4:	90 91 b5 02 	lds	r25, 0x02B5	; 0x8002b5 <CAN+0x24>
    24d8:	00 97       	sbiw	r24, 0x00	; 0
    24da:	11 f0       	breq	.+4      	; 0x24e0 <_GLOBAL__sub_D_CAN+0x10>
    24dc:	0e 94 c5 15 	call	0x2b8a	; 0x2b8a <_ZdaPv>
    24e0:	80 91 a2 02 	lds	r24, 0x02A2	; 0x8002a2 <CAN+0x11>
    24e4:	90 91 a3 02 	lds	r25, 0x02A3	; 0x8002a3 <CAN+0x12>
    24e8:	00 97       	sbiw	r24, 0x00	; 0
    24ea:	11 f0       	breq	.+4      	; 0x24f0 <_GLOBAL__sub_D_CAN+0x20>
    24ec:	0c 94 c5 15 	jmp	0x2b8a	; 0x2b8a <_ZdaPv>
    24f0:	08 95       	ret

000024f2 <__vector_16>:
    24f2:	1f 92       	push	r1
    24f4:	0f 92       	push	r0
    24f6:	0f b6       	in	r0, 0x3f	; 63
    24f8:	0f 92       	push	r0
    24fa:	11 24       	eor	r1, r1
    24fc:	2f 93       	push	r18
    24fe:	3f 93       	push	r19
    2500:	8f 93       	push	r24
    2502:	9f 93       	push	r25
    2504:	af 93       	push	r26
    2506:	bf 93       	push	r27
    2508:	80 91 dd 02 	lds	r24, 0x02DD	; 0x8002dd <timer0_millis>
    250c:	90 91 de 02 	lds	r25, 0x02DE	; 0x8002de <timer0_millis+0x1>
    2510:	a0 91 df 02 	lds	r26, 0x02DF	; 0x8002df <timer0_millis+0x2>
    2514:	b0 91 e0 02 	lds	r27, 0x02E0	; 0x8002e0 <timer0_millis+0x3>
    2518:	30 91 dc 02 	lds	r19, 0x02DC	; 0x8002dc <timer0_fract>
    251c:	23 e0       	ldi	r18, 0x03	; 3
    251e:	23 0f       	add	r18, r19
    2520:	2d 37       	cpi	r18, 0x7D	; 125
    2522:	58 f5       	brcc	.+86     	; 0x257a <__vector_16+0x88>
    2524:	01 96       	adiw	r24, 0x01	; 1
    2526:	a1 1d       	adc	r26, r1
    2528:	b1 1d       	adc	r27, r1
    252a:	20 93 dc 02 	sts	0x02DC, r18	; 0x8002dc <timer0_fract>
    252e:	80 93 dd 02 	sts	0x02DD, r24	; 0x8002dd <timer0_millis>
    2532:	90 93 de 02 	sts	0x02DE, r25	; 0x8002de <timer0_millis+0x1>
    2536:	a0 93 df 02 	sts	0x02DF, r26	; 0x8002df <timer0_millis+0x2>
    253a:	b0 93 e0 02 	sts	0x02E0, r27	; 0x8002e0 <timer0_millis+0x3>
    253e:	80 91 e1 02 	lds	r24, 0x02E1	; 0x8002e1 <timer0_overflow_count>
    2542:	90 91 e2 02 	lds	r25, 0x02E2	; 0x8002e2 <timer0_overflow_count+0x1>
    2546:	a0 91 e3 02 	lds	r26, 0x02E3	; 0x8002e3 <timer0_overflow_count+0x2>
    254a:	b0 91 e4 02 	lds	r27, 0x02E4	; 0x8002e4 <timer0_overflow_count+0x3>
    254e:	01 96       	adiw	r24, 0x01	; 1
    2550:	a1 1d       	adc	r26, r1
    2552:	b1 1d       	adc	r27, r1
    2554:	80 93 e1 02 	sts	0x02E1, r24	; 0x8002e1 <timer0_overflow_count>
    2558:	90 93 e2 02 	sts	0x02E2, r25	; 0x8002e2 <timer0_overflow_count+0x1>
    255c:	a0 93 e3 02 	sts	0x02E3, r26	; 0x8002e3 <timer0_overflow_count+0x2>
    2560:	b0 93 e4 02 	sts	0x02E4, r27	; 0x8002e4 <timer0_overflow_count+0x3>
    2564:	bf 91       	pop	r27
    2566:	af 91       	pop	r26
    2568:	9f 91       	pop	r25
    256a:	8f 91       	pop	r24
    256c:	3f 91       	pop	r19
    256e:	2f 91       	pop	r18
    2570:	0f 90       	pop	r0
    2572:	0f be       	out	0x3f, r0	; 63
    2574:	0f 90       	pop	r0
    2576:	1f 90       	pop	r1
    2578:	18 95       	reti
    257a:	26 e8       	ldi	r18, 0x86	; 134
    257c:	23 0f       	add	r18, r19
    257e:	02 96       	adiw	r24, 0x02	; 2
    2580:	a1 1d       	adc	r26, r1
    2582:	b1 1d       	adc	r27, r1
    2584:	d2 cf       	rjmp	.-92     	; 0x252a <__vector_16+0x38>

00002586 <millis>:
    2586:	2f b7       	in	r18, 0x3f	; 63
    2588:	f8 94       	cli
    258a:	60 91 dd 02 	lds	r22, 0x02DD	; 0x8002dd <timer0_millis>
    258e:	70 91 de 02 	lds	r23, 0x02DE	; 0x8002de <timer0_millis+0x1>
    2592:	80 91 df 02 	lds	r24, 0x02DF	; 0x8002df <timer0_millis+0x2>
    2596:	90 91 e0 02 	lds	r25, 0x02E0	; 0x8002e0 <timer0_millis+0x3>
    259a:	2f bf       	out	0x3f, r18	; 63
    259c:	08 95       	ret

0000259e <init>:
    259e:	78 94       	sei
    25a0:	84 b5       	in	r24, 0x24	; 36
    25a2:	82 60       	ori	r24, 0x02	; 2
    25a4:	84 bd       	out	0x24, r24	; 36
    25a6:	84 b5       	in	r24, 0x24	; 36
    25a8:	81 60       	ori	r24, 0x01	; 1
    25aa:	84 bd       	out	0x24, r24	; 36
    25ac:	85 b5       	in	r24, 0x25	; 37
    25ae:	82 60       	ori	r24, 0x02	; 2
    25b0:	85 bd       	out	0x25, r24	; 37
    25b2:	85 b5       	in	r24, 0x25	; 37
    25b4:	81 60       	ori	r24, 0x01	; 1
    25b6:	85 bd       	out	0x25, r24	; 37
    25b8:	ee e6       	ldi	r30, 0x6E	; 110
    25ba:	f0 e0       	ldi	r31, 0x00	; 0
    25bc:	80 81       	ld	r24, Z
    25be:	81 60       	ori	r24, 0x01	; 1
    25c0:	80 83       	st	Z, r24
    25c2:	e1 e8       	ldi	r30, 0x81	; 129
    25c4:	f0 e0       	ldi	r31, 0x00	; 0
    25c6:	10 82       	st	Z, r1
    25c8:	80 81       	ld	r24, Z
    25ca:	82 60       	ori	r24, 0x02	; 2
    25cc:	80 83       	st	Z, r24
    25ce:	80 81       	ld	r24, Z
    25d0:	81 60       	ori	r24, 0x01	; 1
    25d2:	80 83       	st	Z, r24
    25d4:	e0 e8       	ldi	r30, 0x80	; 128
    25d6:	f0 e0       	ldi	r31, 0x00	; 0
    25d8:	80 81       	ld	r24, Z
    25da:	81 60       	ori	r24, 0x01	; 1
    25dc:	80 83       	st	Z, r24
    25de:	e1 eb       	ldi	r30, 0xB1	; 177
    25e0:	f0 e0       	ldi	r31, 0x00	; 0
    25e2:	80 81       	ld	r24, Z
    25e4:	84 60       	ori	r24, 0x04	; 4
    25e6:	80 83       	st	Z, r24
    25e8:	e0 eb       	ldi	r30, 0xB0	; 176
    25ea:	f0 e0       	ldi	r31, 0x00	; 0
    25ec:	80 81       	ld	r24, Z
    25ee:	81 60       	ori	r24, 0x01	; 1
    25f0:	80 83       	st	Z, r24
    25f2:	ea e7       	ldi	r30, 0x7A	; 122
    25f4:	f0 e0       	ldi	r31, 0x00	; 0
    25f6:	80 81       	ld	r24, Z
    25f8:	84 60       	ori	r24, 0x04	; 4
    25fa:	80 83       	st	Z, r24
    25fc:	80 81       	ld	r24, Z
    25fe:	82 60       	ori	r24, 0x02	; 2
    2600:	80 83       	st	Z, r24
    2602:	80 81       	ld	r24, Z
    2604:	81 60       	ori	r24, 0x01	; 1
    2606:	80 83       	st	Z, r24
    2608:	80 81       	ld	r24, Z
    260a:	80 68       	ori	r24, 0x80	; 128
    260c:	80 83       	st	Z, r24
    260e:	10 92 c1 00 	sts	0x00C1, r1	; 0x8000c1 <__DATA_REGION_ORIGIN__+0x61>
    2612:	08 95       	ret

00002614 <turnOffPWM>:
    2614:	83 30       	cpi	r24, 0x03	; 3
    2616:	81 f0       	breq	.+32     	; 0x2638 <turnOffPWM+0x24>
    2618:	28 f4       	brcc	.+10     	; 0x2624 <turnOffPWM+0x10>
    261a:	81 30       	cpi	r24, 0x01	; 1
    261c:	99 f0       	breq	.+38     	; 0x2644 <turnOffPWM+0x30>
    261e:	82 30       	cpi	r24, 0x02	; 2
    2620:	a9 f0       	breq	.+42     	; 0x264c <turnOffPWM+0x38>
    2622:	08 95       	ret
    2624:	87 30       	cpi	r24, 0x07	; 7
    2626:	a9 f0       	breq	.+42     	; 0x2652 <turnOffPWM+0x3e>
    2628:	88 30       	cpi	r24, 0x08	; 8
    262a:	c9 f0       	breq	.+50     	; 0x265e <turnOffPWM+0x4a>
    262c:	84 30       	cpi	r24, 0x04	; 4
    262e:	b1 f4       	brne	.+44     	; 0x265c <turnOffPWM+0x48>
    2630:	80 91 80 00 	lds	r24, 0x0080	; 0x800080 <__DATA_REGION_ORIGIN__+0x20>
    2634:	8f 7d       	andi	r24, 0xDF	; 223
    2636:	03 c0       	rjmp	.+6      	; 0x263e <turnOffPWM+0x2a>
    2638:	80 91 80 00 	lds	r24, 0x0080	; 0x800080 <__DATA_REGION_ORIGIN__+0x20>
    263c:	8f 77       	andi	r24, 0x7F	; 127
    263e:	80 93 80 00 	sts	0x0080, r24	; 0x800080 <__DATA_REGION_ORIGIN__+0x20>
    2642:	08 95       	ret
    2644:	84 b5       	in	r24, 0x24	; 36
    2646:	8f 77       	andi	r24, 0x7F	; 127
    2648:	84 bd       	out	0x24, r24	; 36
    264a:	08 95       	ret
    264c:	84 b5       	in	r24, 0x24	; 36
    264e:	8f 7d       	andi	r24, 0xDF	; 223
    2650:	fb cf       	rjmp	.-10     	; 0x2648 <turnOffPWM+0x34>
    2652:	80 91 b0 00 	lds	r24, 0x00B0	; 0x8000b0 <__DATA_REGION_ORIGIN__+0x50>
    2656:	8f 77       	andi	r24, 0x7F	; 127
    2658:	80 93 b0 00 	sts	0x00B0, r24	; 0x8000b0 <__DATA_REGION_ORIGIN__+0x50>
    265c:	08 95       	ret
    265e:	80 91 b0 00 	lds	r24, 0x00B0	; 0x8000b0 <__DATA_REGION_ORIGIN__+0x50>
    2662:	8f 7d       	andi	r24, 0xDF	; 223
    2664:	f9 cf       	rjmp	.-14     	; 0x2658 <turnOffPWM+0x44>

00002666 <pinMode>:
    2666:	cf 93       	push	r28
    2668:	df 93       	push	r29
    266a:	90 e0       	ldi	r25, 0x00	; 0
    266c:	fc 01       	movw	r30, r24
    266e:	e4 58       	subi	r30, 0x84	; 132
    2670:	ff 4f       	sbci	r31, 0xFF	; 255
    2672:	24 91       	lpm	r18, Z
    2674:	80 57       	subi	r24, 0x70	; 112
    2676:	9f 4f       	sbci	r25, 0xFF	; 255
    2678:	fc 01       	movw	r30, r24
    267a:	84 91       	lpm	r24, Z
    267c:	88 23       	and	r24, r24
    267e:	c9 f0       	breq	.+50     	; 0x26b2 <pinMode+0x4c>
    2680:	90 e0       	ldi	r25, 0x00	; 0
    2682:	88 0f       	add	r24, r24
    2684:	99 1f       	adc	r25, r25
    2686:	fc 01       	movw	r30, r24
    2688:	e2 55       	subi	r30, 0x52	; 82
    268a:	ff 4f       	sbci	r31, 0xFF	; 255
    268c:	a5 91       	lpm	r26, Z+
    268e:	b4 91       	lpm	r27, Z
    2690:	fc 01       	movw	r30, r24
    2692:	ec 55       	subi	r30, 0x5C	; 92
    2694:	ff 4f       	sbci	r31, 0xFF	; 255
    2696:	c5 91       	lpm	r28, Z+
    2698:	d4 91       	lpm	r29, Z
    269a:	61 11       	cpse	r22, r1
    269c:	0d c0       	rjmp	.+26     	; 0x26b8 <pinMode+0x52>
    269e:	9f b7       	in	r25, 0x3f	; 63
    26a0:	f8 94       	cli
    26a2:	8c 91       	ld	r24, X
    26a4:	20 95       	com	r18
    26a6:	82 23       	and	r24, r18
    26a8:	8c 93       	st	X, r24
    26aa:	88 81       	ld	r24, Y
    26ac:	28 23       	and	r18, r24
    26ae:	28 83       	st	Y, r18
    26b0:	9f bf       	out	0x3f, r25	; 63
    26b2:	df 91       	pop	r29
    26b4:	cf 91       	pop	r28
    26b6:	08 95       	ret
    26b8:	62 30       	cpi	r22, 0x02	; 2
    26ba:	51 f4       	brne	.+20     	; 0x26d0 <pinMode+0x6a>
    26bc:	9f b7       	in	r25, 0x3f	; 63
    26be:	f8 94       	cli
    26c0:	3c 91       	ld	r19, X
    26c2:	82 2f       	mov	r24, r18
    26c4:	80 95       	com	r24
    26c6:	83 23       	and	r24, r19
    26c8:	8c 93       	st	X, r24
    26ca:	e8 81       	ld	r30, Y
    26cc:	2e 2b       	or	r18, r30
    26ce:	ef cf       	rjmp	.-34     	; 0x26ae <pinMode+0x48>
    26d0:	8f b7       	in	r24, 0x3f	; 63
    26d2:	f8 94       	cli
    26d4:	ec 91       	ld	r30, X
    26d6:	2e 2b       	or	r18, r30
    26d8:	2c 93       	st	X, r18
    26da:	8f bf       	out	0x3f, r24	; 63
    26dc:	ea cf       	rjmp	.-44     	; 0x26b2 <pinMode+0x4c>

000026de <digitalWrite>:
    26de:	1f 93       	push	r17
    26e0:	cf 93       	push	r28
    26e2:	df 93       	push	r29
    26e4:	28 2f       	mov	r18, r24
    26e6:	30 e0       	ldi	r19, 0x00	; 0
    26e8:	f9 01       	movw	r30, r18
    26ea:	e8 59       	subi	r30, 0x98	; 152
    26ec:	ff 4f       	sbci	r31, 0xFF	; 255
    26ee:	84 91       	lpm	r24, Z
    26f0:	f9 01       	movw	r30, r18
    26f2:	e4 58       	subi	r30, 0x84	; 132
    26f4:	ff 4f       	sbci	r31, 0xFF	; 255
    26f6:	d4 91       	lpm	r29, Z
    26f8:	f9 01       	movw	r30, r18
    26fa:	e0 57       	subi	r30, 0x70	; 112
    26fc:	ff 4f       	sbci	r31, 0xFF	; 255
    26fe:	c4 91       	lpm	r28, Z
    2700:	cc 23       	and	r28, r28
    2702:	a9 f0       	breq	.+42     	; 0x272e <digitalWrite+0x50>
    2704:	16 2f       	mov	r17, r22
    2706:	81 11       	cpse	r24, r1
    2708:	0e 94 0a 13 	call	0x2614	; 0x2614 <turnOffPWM>
    270c:	ec 2f       	mov	r30, r28
    270e:	f0 e0       	ldi	r31, 0x00	; 0
    2710:	ee 0f       	add	r30, r30
    2712:	ff 1f       	adc	r31, r31
    2714:	ec 55       	subi	r30, 0x5C	; 92
    2716:	ff 4f       	sbci	r31, 0xFF	; 255
    2718:	a5 91       	lpm	r26, Z+
    271a:	b4 91       	lpm	r27, Z
    271c:	8f b7       	in	r24, 0x3f	; 63
    271e:	f8 94       	cli
    2720:	ec 91       	ld	r30, X
    2722:	11 11       	cpse	r17, r1
    2724:	08 c0       	rjmp	.+16     	; 0x2736 <digitalWrite+0x58>
    2726:	d0 95       	com	r29
    2728:	de 23       	and	r29, r30
    272a:	dc 93       	st	X, r29
    272c:	8f bf       	out	0x3f, r24	; 63
    272e:	df 91       	pop	r29
    2730:	cf 91       	pop	r28
    2732:	1f 91       	pop	r17
    2734:	08 95       	ret
    2736:	de 2b       	or	r29, r30
    2738:	f8 cf       	rjmp	.-16     	; 0x272a <digitalWrite+0x4c>

0000273a <nothing>:
    273a:	08 95       	ret

0000273c <attachInterrupt>:
    273c:	82 30       	cpi	r24, 0x02	; 2
    273e:	e8 f4       	brcc	.+58     	; 0x277a <attachInterrupt+0x3e>
    2740:	e8 2f       	mov	r30, r24
    2742:	f0 e0       	ldi	r31, 0x00	; 0
    2744:	ee 0f       	add	r30, r30
    2746:	ff 1f       	adc	r31, r31
    2748:	ec 5b       	subi	r30, 0xBC	; 188
    274a:	fe 4f       	sbci	r31, 0xFE	; 254
    274c:	71 83       	std	Z+1, r23	; 0x01
    274e:	60 83       	st	Z, r22
    2750:	81 30       	cpi	r24, 0x01	; 1
    2752:	41 f0       	breq	.+16     	; 0x2764 <attachInterrupt+0x28>
    2754:	80 91 69 00 	lds	r24, 0x0069	; 0x800069 <__DATA_REGION_ORIGIN__+0x9>
    2758:	8c 7f       	andi	r24, 0xFC	; 252
    275a:	48 2b       	or	r20, r24
    275c:	40 93 69 00 	sts	0x0069, r20	; 0x800069 <__DATA_REGION_ORIGIN__+0x9>
    2760:	e8 9a       	sbi	0x1d, 0	; 29
    2762:	08 95       	ret
    2764:	80 91 69 00 	lds	r24, 0x0069	; 0x800069 <__DATA_REGION_ORIGIN__+0x9>
    2768:	83 7f       	andi	r24, 0xF3	; 243
    276a:	44 0f       	add	r20, r20
    276c:	55 1f       	adc	r21, r21
    276e:	44 0f       	add	r20, r20
    2770:	55 1f       	adc	r21, r21
    2772:	48 2b       	or	r20, r24
    2774:	40 93 69 00 	sts	0x0069, r20	; 0x800069 <__DATA_REGION_ORIGIN__+0x9>
    2778:	e9 9a       	sbi	0x1d, 1	; 29
    277a:	08 95       	ret

0000277c <__vector_1>:
    277c:	1f 92       	push	r1
    277e:	0f 92       	push	r0
    2780:	0f b6       	in	r0, 0x3f	; 63
    2782:	0f 92       	push	r0
    2784:	11 24       	eor	r1, r1
    2786:	2f 93       	push	r18
    2788:	3f 93       	push	r19
    278a:	4f 93       	push	r20
    278c:	5f 93       	push	r21
    278e:	6f 93       	push	r22
    2790:	7f 93       	push	r23
    2792:	8f 93       	push	r24
    2794:	9f 93       	push	r25
    2796:	af 93       	push	r26
    2798:	bf 93       	push	r27
    279a:	ef 93       	push	r30
    279c:	ff 93       	push	r31
    279e:	e0 91 44 01 	lds	r30, 0x0144	; 0x800144 <intFunc>
    27a2:	f0 91 45 01 	lds	r31, 0x0145	; 0x800145 <intFunc+0x1>
    27a6:	09 95       	icall
    27a8:	ff 91       	pop	r31
    27aa:	ef 91       	pop	r30
    27ac:	bf 91       	pop	r27
    27ae:	af 91       	pop	r26
    27b0:	9f 91       	pop	r25
    27b2:	8f 91       	pop	r24
    27b4:	7f 91       	pop	r23
    27b6:	6f 91       	pop	r22
    27b8:	5f 91       	pop	r21
    27ba:	4f 91       	pop	r20
    27bc:	3f 91       	pop	r19
    27be:	2f 91       	pop	r18
    27c0:	0f 90       	pop	r0
    27c2:	0f be       	out	0x3f, r0	; 63
    27c4:	0f 90       	pop	r0
    27c6:	1f 90       	pop	r1
    27c8:	18 95       	reti

000027ca <__vector_2>:
    27ca:	1f 92       	push	r1
    27cc:	0f 92       	push	r0
    27ce:	0f b6       	in	r0, 0x3f	; 63
    27d0:	0f 92       	push	r0
    27d2:	11 24       	eor	r1, r1
    27d4:	2f 93       	push	r18
    27d6:	3f 93       	push	r19
    27d8:	4f 93       	push	r20
    27da:	5f 93       	push	r21
    27dc:	6f 93       	push	r22
    27de:	7f 93       	push	r23
    27e0:	8f 93       	push	r24
    27e2:	9f 93       	push	r25
    27e4:	af 93       	push	r26
    27e6:	bf 93       	push	r27
    27e8:	ef 93       	push	r30
    27ea:	ff 93       	push	r31
    27ec:	e0 91 46 01 	lds	r30, 0x0146	; 0x800146 <intFunc+0x2>
    27f0:	f0 91 47 01 	lds	r31, 0x0147	; 0x800147 <intFunc+0x3>
    27f4:	09 95       	icall
    27f6:	ff 91       	pop	r31
    27f8:	ef 91       	pop	r30
    27fa:	bf 91       	pop	r27
    27fc:	af 91       	pop	r26
    27fe:	9f 91       	pop	r25
    2800:	8f 91       	pop	r24
    2802:	7f 91       	pop	r23
    2804:	6f 91       	pop	r22
    2806:	5f 91       	pop	r21
    2808:	4f 91       	pop	r20
    280a:	3f 91       	pop	r19
    280c:	2f 91       	pop	r18
    280e:	0f 90       	pop	r0
    2810:	0f be       	out	0x3f, r0	; 63
    2812:	0f 90       	pop	r0
    2814:	1f 90       	pop	r1
    2816:	18 95       	reti

00002818 <_ZN14HardwareSerial9availableEv>:
    2818:	fc 01       	movw	r30, r24
    281a:	91 8d       	ldd	r25, Z+25	; 0x19
    281c:	22 8d       	ldd	r18, Z+26	; 0x1a
    281e:	89 2f       	mov	r24, r25
    2820:	90 e0       	ldi	r25, 0x00	; 0
    2822:	80 5c       	subi	r24, 0xC0	; 192
    2824:	9f 4f       	sbci	r25, 0xFF	; 255
    2826:	82 1b       	sub	r24, r18
    2828:	91 09       	sbc	r25, r1
    282a:	8f 73       	andi	r24, 0x3F	; 63
    282c:	99 27       	eor	r25, r25
    282e:	08 95       	ret

00002830 <_ZN14HardwareSerial4peekEv>:
    2830:	fc 01       	movw	r30, r24
    2832:	91 8d       	ldd	r25, Z+25	; 0x19
    2834:	82 8d       	ldd	r24, Z+26	; 0x1a
    2836:	98 17       	cp	r25, r24
    2838:	31 f0       	breq	.+12     	; 0x2846 <_ZN14HardwareSerial4peekEv+0x16>
    283a:	82 8d       	ldd	r24, Z+26	; 0x1a
    283c:	e8 0f       	add	r30, r24
    283e:	f1 1d       	adc	r31, r1
    2840:	85 8d       	ldd	r24, Z+29	; 0x1d
    2842:	90 e0       	ldi	r25, 0x00	; 0
    2844:	08 95       	ret
    2846:	8f ef       	ldi	r24, 0xFF	; 255
    2848:	9f ef       	ldi	r25, 0xFF	; 255
    284a:	08 95       	ret

0000284c <_ZN14HardwareSerial4readEv>:
    284c:	fc 01       	movw	r30, r24
    284e:	91 8d       	ldd	r25, Z+25	; 0x19
    2850:	82 8d       	ldd	r24, Z+26	; 0x1a
    2852:	98 17       	cp	r25, r24
    2854:	61 f0       	breq	.+24     	; 0x286e <_ZN14HardwareSerial4readEv+0x22>
    2856:	a2 8d       	ldd	r26, Z+26	; 0x1a
    2858:	ae 0f       	add	r26, r30
    285a:	bf 2f       	mov	r27, r31
    285c:	b1 1d       	adc	r27, r1
    285e:	5d 96       	adiw	r26, 0x1d	; 29
    2860:	8c 91       	ld	r24, X
    2862:	92 8d       	ldd	r25, Z+26	; 0x1a
    2864:	9f 5f       	subi	r25, 0xFF	; 255
    2866:	9f 73       	andi	r25, 0x3F	; 63
    2868:	92 8f       	std	Z+26, r25	; 0x1a
    286a:	90 e0       	ldi	r25, 0x00	; 0
    286c:	08 95       	ret
    286e:	8f ef       	ldi	r24, 0xFF	; 255
    2870:	9f ef       	ldi	r25, 0xFF	; 255
    2872:	08 95       	ret

00002874 <_ZN14HardwareSerial17availableForWriteEv>:
    2874:	fc 01       	movw	r30, r24
    2876:	53 8d       	ldd	r21, Z+27	; 0x1b
    2878:	44 8d       	ldd	r20, Z+28	; 0x1c
    287a:	25 2f       	mov	r18, r21
    287c:	30 e0       	ldi	r19, 0x00	; 0
    287e:	84 2f       	mov	r24, r20
    2880:	90 e0       	ldi	r25, 0x00	; 0
    2882:	82 1b       	sub	r24, r18
    2884:	93 0b       	sbc	r25, r19
    2886:	54 17       	cp	r21, r20
    2888:	10 f0       	brcs	.+4      	; 0x288e <_ZN14HardwareSerial17availableForWriteEv+0x1a>
    288a:	cf 96       	adiw	r24, 0x3f	; 63
    288c:	08 95       	ret
    288e:	01 97       	sbiw	r24, 0x01	; 1
    2890:	08 95       	ret

00002892 <_ZN14HardwareSerial17_tx_udr_empty_irqEv>:
    2892:	fc 01       	movw	r30, r24
    2894:	a4 8d       	ldd	r26, Z+28	; 0x1c
    2896:	a8 0f       	add	r26, r24
    2898:	b9 2f       	mov	r27, r25
    289a:	b1 1d       	adc	r27, r1
    289c:	a3 5a       	subi	r26, 0xA3	; 163
    289e:	bf 4f       	sbci	r27, 0xFF	; 255
    28a0:	2c 91       	ld	r18, X
    28a2:	84 8d       	ldd	r24, Z+28	; 0x1c
    28a4:	90 e0       	ldi	r25, 0x00	; 0
    28a6:	01 96       	adiw	r24, 0x01	; 1
    28a8:	8f 73       	andi	r24, 0x3F	; 63
    28aa:	99 27       	eor	r25, r25
    28ac:	84 8f       	std	Z+28, r24	; 0x1c
    28ae:	a6 89       	ldd	r26, Z+22	; 0x16
    28b0:	b7 89       	ldd	r27, Z+23	; 0x17
    28b2:	2c 93       	st	X, r18
    28b4:	a0 89       	ldd	r26, Z+16	; 0x10
    28b6:	b1 89       	ldd	r27, Z+17	; 0x11
    28b8:	8c 91       	ld	r24, X
    28ba:	83 70       	andi	r24, 0x03	; 3
    28bc:	80 64       	ori	r24, 0x40	; 64
    28be:	8c 93       	st	X, r24
    28c0:	93 8d       	ldd	r25, Z+27	; 0x1b
    28c2:	84 8d       	ldd	r24, Z+28	; 0x1c
    28c4:	98 13       	cpse	r25, r24
    28c6:	06 c0       	rjmp	.+12     	; 0x28d4 <_ZN14HardwareSerial17_tx_udr_empty_irqEv+0x42>
    28c8:	02 88       	ldd	r0, Z+18	; 0x12
    28ca:	f3 89       	ldd	r31, Z+19	; 0x13
    28cc:	e0 2d       	mov	r30, r0
    28ce:	80 81       	ld	r24, Z
    28d0:	8f 7d       	andi	r24, 0xDF	; 223
    28d2:	80 83       	st	Z, r24
    28d4:	08 95       	ret

000028d6 <_ZN14HardwareSerial5flushEv>:
    28d6:	cf 93       	push	r28
    28d8:	df 93       	push	r29
    28da:	ec 01       	movw	r28, r24
    28dc:	88 8d       	ldd	r24, Y+24	; 0x18
    28de:	88 23       	and	r24, r24
    28e0:	b9 f0       	breq	.+46     	; 0x2910 <_ZN14HardwareSerial5flushEv+0x3a>
    28e2:	aa 89       	ldd	r26, Y+18	; 0x12
    28e4:	bb 89       	ldd	r27, Y+19	; 0x13
    28e6:	e8 89       	ldd	r30, Y+16	; 0x10
    28e8:	f9 89       	ldd	r31, Y+17	; 0x11
    28ea:	8c 91       	ld	r24, X
    28ec:	85 fd       	sbrc	r24, 5
    28ee:	03 c0       	rjmp	.+6      	; 0x28f6 <_ZN14HardwareSerial5flushEv+0x20>
    28f0:	80 81       	ld	r24, Z
    28f2:	86 fd       	sbrc	r24, 6
    28f4:	0d c0       	rjmp	.+26     	; 0x2910 <_ZN14HardwareSerial5flushEv+0x3a>
    28f6:	0f b6       	in	r0, 0x3f	; 63
    28f8:	07 fc       	sbrc	r0, 7
    28fa:	f7 cf       	rjmp	.-18     	; 0x28ea <_ZN14HardwareSerial5flushEv+0x14>
    28fc:	8c 91       	ld	r24, X
    28fe:	85 ff       	sbrs	r24, 5
    2900:	f2 cf       	rjmp	.-28     	; 0x28e6 <_ZN14HardwareSerial5flushEv+0x10>
    2902:	80 81       	ld	r24, Z
    2904:	85 ff       	sbrs	r24, 5
    2906:	ed cf       	rjmp	.-38     	; 0x28e2 <_ZN14HardwareSerial5flushEv+0xc>
    2908:	ce 01       	movw	r24, r28
    290a:	0e 94 49 14 	call	0x2892	; 0x2892 <_ZN14HardwareSerial17_tx_udr_empty_irqEv>
    290e:	e9 cf       	rjmp	.-46     	; 0x28e2 <_ZN14HardwareSerial5flushEv+0xc>
    2910:	df 91       	pop	r29
    2912:	cf 91       	pop	r28
    2914:	08 95       	ret

00002916 <_ZN14HardwareSerial5writeEh>:
    2916:	ef 92       	push	r14
    2918:	ff 92       	push	r15
    291a:	0f 93       	push	r16
    291c:	1f 93       	push	r17
    291e:	cf 93       	push	r28
    2920:	df 93       	push	r29
    2922:	ec 01       	movw	r28, r24
    2924:	81 e0       	ldi	r24, 0x01	; 1
    2926:	88 8f       	std	Y+24, r24	; 0x18
    2928:	9b 8d       	ldd	r25, Y+27	; 0x1b
    292a:	8c 8d       	ldd	r24, Y+28	; 0x1c
    292c:	98 13       	cpse	r25, r24
    292e:	1a c0       	rjmp	.+52     	; 0x2964 <_ZN14HardwareSerial5writeEh+0x4e>
    2930:	e8 89       	ldd	r30, Y+16	; 0x10
    2932:	f9 89       	ldd	r31, Y+17	; 0x11
    2934:	80 81       	ld	r24, Z
    2936:	85 ff       	sbrs	r24, 5
    2938:	15 c0       	rjmp	.+42     	; 0x2964 <_ZN14HardwareSerial5writeEh+0x4e>
    293a:	9f b7       	in	r25, 0x3f	; 63
    293c:	f8 94       	cli
    293e:	ee 89       	ldd	r30, Y+22	; 0x16
    2940:	ff 89       	ldd	r31, Y+23	; 0x17
    2942:	60 83       	st	Z, r22
    2944:	e8 89       	ldd	r30, Y+16	; 0x10
    2946:	f9 89       	ldd	r31, Y+17	; 0x11
    2948:	80 81       	ld	r24, Z
    294a:	83 70       	andi	r24, 0x03	; 3
    294c:	80 64       	ori	r24, 0x40	; 64
    294e:	80 83       	st	Z, r24
    2950:	9f bf       	out	0x3f, r25	; 63
    2952:	81 e0       	ldi	r24, 0x01	; 1
    2954:	90 e0       	ldi	r25, 0x00	; 0
    2956:	df 91       	pop	r29
    2958:	cf 91       	pop	r28
    295a:	1f 91       	pop	r17
    295c:	0f 91       	pop	r16
    295e:	ff 90       	pop	r15
    2960:	ef 90       	pop	r14
    2962:	08 95       	ret
    2964:	f6 2e       	mov	r15, r22
    2966:	0b 8d       	ldd	r16, Y+27	; 0x1b
    2968:	10 e0       	ldi	r17, 0x00	; 0
    296a:	0f 5f       	subi	r16, 0xFF	; 255
    296c:	1f 4f       	sbci	r17, 0xFF	; 255
    296e:	0f 73       	andi	r16, 0x3F	; 63
    2970:	11 27       	eor	r17, r17
    2972:	e0 2e       	mov	r14, r16
    2974:	8c 8d       	ldd	r24, Y+28	; 0x1c
    2976:	8e 11       	cpse	r24, r14
    2978:	0c c0       	rjmp	.+24     	; 0x2992 <_ZN14HardwareSerial5writeEh+0x7c>
    297a:	0f b6       	in	r0, 0x3f	; 63
    297c:	07 fc       	sbrc	r0, 7
    297e:	fa cf       	rjmp	.-12     	; 0x2974 <_ZN14HardwareSerial5writeEh+0x5e>
    2980:	e8 89       	ldd	r30, Y+16	; 0x10
    2982:	f9 89       	ldd	r31, Y+17	; 0x11
    2984:	80 81       	ld	r24, Z
    2986:	85 ff       	sbrs	r24, 5
    2988:	f5 cf       	rjmp	.-22     	; 0x2974 <_ZN14HardwareSerial5writeEh+0x5e>
    298a:	ce 01       	movw	r24, r28
    298c:	0e 94 49 14 	call	0x2892	; 0x2892 <_ZN14HardwareSerial17_tx_udr_empty_irqEv>
    2990:	f1 cf       	rjmp	.-30     	; 0x2974 <_ZN14HardwareSerial5writeEh+0x5e>
    2992:	eb 8d       	ldd	r30, Y+27	; 0x1b
    2994:	ec 0f       	add	r30, r28
    2996:	fd 2f       	mov	r31, r29
    2998:	f1 1d       	adc	r31, r1
    299a:	e3 5a       	subi	r30, 0xA3	; 163
    299c:	ff 4f       	sbci	r31, 0xFF	; 255
    299e:	f0 82       	st	Z, r15
    29a0:	9f b7       	in	r25, 0x3f	; 63
    29a2:	f8 94       	cli
    29a4:	0b 8f       	std	Y+27, r16	; 0x1b
    29a6:	ea 89       	ldd	r30, Y+18	; 0x12
    29a8:	fb 89       	ldd	r31, Y+19	; 0x13
    29aa:	80 81       	ld	r24, Z
    29ac:	80 62       	ori	r24, 0x20	; 32
    29ae:	cf cf       	rjmp	.-98     	; 0x294e <_ZN14HardwareSerial5writeEh+0x38>

000029b0 <_ZN14HardwareSerial5beginEmh>:
    29b0:	cf 92       	push	r12
    29b2:	df 92       	push	r13
    29b4:	ef 92       	push	r14
    29b6:	ff 92       	push	r15
    29b8:	1f 93       	push	r17
    29ba:	cf 93       	push	r28
    29bc:	df 93       	push	r29
    29be:	ec 01       	movw	r28, r24
    29c0:	6a 01       	movw	r12, r20
    29c2:	7b 01       	movw	r14, r22
    29c4:	12 2f       	mov	r17, r18
    29c6:	e8 89       	ldd	r30, Y+16	; 0x10
    29c8:	f9 89       	ldd	r31, Y+17	; 0x11
    29ca:	82 e0       	ldi	r24, 0x02	; 2
    29cc:	80 83       	st	Z, r24
    29ce:	c1 14       	cp	r12, r1
    29d0:	81 ee       	ldi	r24, 0xE1	; 225
    29d2:	d8 06       	cpc	r13, r24
    29d4:	e1 04       	cpc	r14, r1
    29d6:	f1 04       	cpc	r15, r1
    29d8:	a1 f0       	breq	.+40     	; 0x2a02 <_ZN14HardwareSerial5beginEmh+0x52>
    29da:	60 e0       	ldi	r22, 0x00	; 0
    29dc:	79 e0       	ldi	r23, 0x09	; 9
    29de:	8d e3       	ldi	r24, 0x3D	; 61
    29e0:	90 e0       	ldi	r25, 0x00	; 0
    29e2:	a7 01       	movw	r20, r14
    29e4:	96 01       	movw	r18, r12
    29e6:	0e 94 d4 1b 	call	0x37a8	; 0x37a8 <__udivmodsi4>
    29ea:	21 50       	subi	r18, 0x01	; 1
    29ec:	31 09       	sbc	r19, r1
    29ee:	41 09       	sbc	r20, r1
    29f0:	51 09       	sbc	r21, r1
    29f2:	56 95       	lsr	r21
    29f4:	47 95       	ror	r20
    29f6:	37 95       	ror	r19
    29f8:	27 95       	ror	r18
    29fa:	21 15       	cp	r18, r1
    29fc:	80 e1       	ldi	r24, 0x10	; 16
    29fe:	38 07       	cpc	r19, r24
    2a00:	98 f0       	brcs	.+38     	; 0x2a28 <_ZN14HardwareSerial5beginEmh+0x78>
    2a02:	e8 89       	ldd	r30, Y+16	; 0x10
    2a04:	f9 89       	ldd	r31, Y+17	; 0x11
    2a06:	10 82       	st	Z, r1
    2a08:	60 e8       	ldi	r22, 0x80	; 128
    2a0a:	74 e8       	ldi	r23, 0x84	; 132
    2a0c:	8e e1       	ldi	r24, 0x1E	; 30
    2a0e:	90 e0       	ldi	r25, 0x00	; 0
    2a10:	a7 01       	movw	r20, r14
    2a12:	96 01       	movw	r18, r12
    2a14:	0e 94 d4 1b 	call	0x37a8	; 0x37a8 <__udivmodsi4>
    2a18:	21 50       	subi	r18, 0x01	; 1
    2a1a:	31 09       	sbc	r19, r1
    2a1c:	41 09       	sbc	r20, r1
    2a1e:	51 09       	sbc	r21, r1
    2a20:	56 95       	lsr	r21
    2a22:	47 95       	ror	r20
    2a24:	37 95       	ror	r19
    2a26:	27 95       	ror	r18
    2a28:	ec 85       	ldd	r30, Y+12	; 0x0c
    2a2a:	fd 85       	ldd	r31, Y+13	; 0x0d
    2a2c:	30 83       	st	Z, r19
    2a2e:	ee 85       	ldd	r30, Y+14	; 0x0e
    2a30:	ff 85       	ldd	r31, Y+15	; 0x0f
    2a32:	20 83       	st	Z, r18
    2a34:	18 8e       	std	Y+24, r1	; 0x18
    2a36:	ec 89       	ldd	r30, Y+20	; 0x14
    2a38:	fd 89       	ldd	r31, Y+21	; 0x15
    2a3a:	10 83       	st	Z, r17
    2a3c:	ea 89       	ldd	r30, Y+18	; 0x12
    2a3e:	fb 89       	ldd	r31, Y+19	; 0x13
    2a40:	80 81       	ld	r24, Z
    2a42:	80 61       	ori	r24, 0x10	; 16
    2a44:	80 83       	st	Z, r24
    2a46:	ea 89       	ldd	r30, Y+18	; 0x12
    2a48:	fb 89       	ldd	r31, Y+19	; 0x13
    2a4a:	80 81       	ld	r24, Z
    2a4c:	88 60       	ori	r24, 0x08	; 8
    2a4e:	80 83       	st	Z, r24
    2a50:	ea 89       	ldd	r30, Y+18	; 0x12
    2a52:	fb 89       	ldd	r31, Y+19	; 0x13
    2a54:	80 81       	ld	r24, Z
    2a56:	80 68       	ori	r24, 0x80	; 128
    2a58:	80 83       	st	Z, r24
    2a5a:	ea 89       	ldd	r30, Y+18	; 0x12
    2a5c:	fb 89       	ldd	r31, Y+19	; 0x13
    2a5e:	80 81       	ld	r24, Z
    2a60:	8f 7d       	andi	r24, 0xDF	; 223
    2a62:	80 83       	st	Z, r24
    2a64:	df 91       	pop	r29
    2a66:	cf 91       	pop	r28
    2a68:	1f 91       	pop	r17
    2a6a:	ff 90       	pop	r15
    2a6c:	ef 90       	pop	r14
    2a6e:	df 90       	pop	r13
    2a70:	cf 90       	pop	r12
    2a72:	08 95       	ret

00002a74 <__vector_18>:
    2a74:	1f 92       	push	r1
    2a76:	0f 92       	push	r0
    2a78:	0f b6       	in	r0, 0x3f	; 63
    2a7a:	0f 92       	push	r0
    2a7c:	11 24       	eor	r1, r1
    2a7e:	2f 93       	push	r18
    2a80:	8f 93       	push	r24
    2a82:	9f 93       	push	r25
    2a84:	ef 93       	push	r30
    2a86:	ff 93       	push	r31
    2a88:	e0 91 f5 02 	lds	r30, 0x02F5	; 0x8002f5 <Serial+0x10>
    2a8c:	f0 91 f6 02 	lds	r31, 0x02F6	; 0x8002f6 <Serial+0x11>
    2a90:	80 81       	ld	r24, Z
    2a92:	e0 91 fb 02 	lds	r30, 0x02FB	; 0x8002fb <Serial+0x16>
    2a96:	f0 91 fc 02 	lds	r31, 0x02FC	; 0x8002fc <Serial+0x17>
    2a9a:	82 fd       	sbrc	r24, 2
    2a9c:	1b c0       	rjmp	.+54     	; 0x2ad4 <__vector_18+0x60>
    2a9e:	90 81       	ld	r25, Z
    2aa0:	80 91 fe 02 	lds	r24, 0x02FE	; 0x8002fe <Serial+0x19>
    2aa4:	8f 5f       	subi	r24, 0xFF	; 255
    2aa6:	8f 73       	andi	r24, 0x3F	; 63
    2aa8:	20 91 ff 02 	lds	r18, 0x02FF	; 0x8002ff <Serial+0x1a>
    2aac:	82 17       	cp	r24, r18
    2aae:	41 f0       	breq	.+16     	; 0x2ac0 <__vector_18+0x4c>
    2ab0:	e0 91 fe 02 	lds	r30, 0x02FE	; 0x8002fe <Serial+0x19>
    2ab4:	f0 e0       	ldi	r31, 0x00	; 0
    2ab6:	eb 51       	subi	r30, 0x1B	; 27
    2ab8:	fd 4f       	sbci	r31, 0xFD	; 253
    2aba:	95 8f       	std	Z+29, r25	; 0x1d
    2abc:	80 93 fe 02 	sts	0x02FE, r24	; 0x8002fe <Serial+0x19>
    2ac0:	ff 91       	pop	r31
    2ac2:	ef 91       	pop	r30
    2ac4:	9f 91       	pop	r25
    2ac6:	8f 91       	pop	r24
    2ac8:	2f 91       	pop	r18
    2aca:	0f 90       	pop	r0
    2acc:	0f be       	out	0x3f, r0	; 63
    2ace:	0f 90       	pop	r0
    2ad0:	1f 90       	pop	r1
    2ad2:	18 95       	reti
    2ad4:	80 81       	ld	r24, Z
    2ad6:	f4 cf       	rjmp	.-24     	; 0x2ac0 <__vector_18+0x4c>

00002ad8 <__vector_19>:
    2ad8:	1f 92       	push	r1
    2ada:	0f 92       	push	r0
    2adc:	0f b6       	in	r0, 0x3f	; 63
    2ade:	0f 92       	push	r0
    2ae0:	11 24       	eor	r1, r1
    2ae2:	2f 93       	push	r18
    2ae4:	3f 93       	push	r19
    2ae6:	4f 93       	push	r20
    2ae8:	5f 93       	push	r21
    2aea:	6f 93       	push	r22
    2aec:	7f 93       	push	r23
    2aee:	8f 93       	push	r24
    2af0:	9f 93       	push	r25
    2af2:	af 93       	push	r26
    2af4:	bf 93       	push	r27
    2af6:	ef 93       	push	r30
    2af8:	ff 93       	push	r31
    2afa:	85 ee       	ldi	r24, 0xE5	; 229
    2afc:	92 e0       	ldi	r25, 0x02	; 2
    2afe:	0e 94 49 14 	call	0x2892	; 0x2892 <_ZN14HardwareSerial17_tx_udr_empty_irqEv>
    2b02:	ff 91       	pop	r31
    2b04:	ef 91       	pop	r30
    2b06:	bf 91       	pop	r27
    2b08:	af 91       	pop	r26
    2b0a:	9f 91       	pop	r25
    2b0c:	8f 91       	pop	r24
    2b0e:	7f 91       	pop	r23
    2b10:	6f 91       	pop	r22
    2b12:	5f 91       	pop	r21
    2b14:	4f 91       	pop	r20
    2b16:	3f 91       	pop	r19
    2b18:	2f 91       	pop	r18
    2b1a:	0f 90       	pop	r0
    2b1c:	0f be       	out	0x3f, r0	; 63
    2b1e:	0f 90       	pop	r0
    2b20:	1f 90       	pop	r1
    2b22:	18 95       	reti

00002b24 <_GLOBAL__sub_I___vector_18>:
    2b24:	e5 ee       	ldi	r30, 0xE5	; 229
    2b26:	f2 e0       	ldi	r31, 0x02	; 2
    2b28:	13 82       	std	Z+3, r1	; 0x03
    2b2a:	12 82       	std	Z+2, r1	; 0x02
    2b2c:	88 ee       	ldi	r24, 0xE8	; 232
    2b2e:	93 e0       	ldi	r25, 0x03	; 3
    2b30:	a0 e0       	ldi	r26, 0x00	; 0
    2b32:	b0 e0       	ldi	r27, 0x00	; 0
    2b34:	84 83       	std	Z+4, r24	; 0x04
    2b36:	95 83       	std	Z+5, r25	; 0x05
    2b38:	a6 83       	std	Z+6, r26	; 0x06
    2b3a:	b7 83       	std	Z+7, r27	; 0x07
    2b3c:	8e e7       	ldi	r24, 0x7E	; 126
    2b3e:	92 e0       	ldi	r25, 0x02	; 2
    2b40:	91 83       	std	Z+1, r25	; 0x01
    2b42:	80 83       	st	Z, r24
    2b44:	85 ec       	ldi	r24, 0xC5	; 197
    2b46:	90 e0       	ldi	r25, 0x00	; 0
    2b48:	95 87       	std	Z+13, r25	; 0x0d
    2b4a:	84 87       	std	Z+12, r24	; 0x0c
    2b4c:	84 ec       	ldi	r24, 0xC4	; 196
    2b4e:	90 e0       	ldi	r25, 0x00	; 0
    2b50:	97 87       	std	Z+15, r25	; 0x0f
    2b52:	86 87       	std	Z+14, r24	; 0x0e
    2b54:	80 ec       	ldi	r24, 0xC0	; 192
    2b56:	90 e0       	ldi	r25, 0x00	; 0
    2b58:	91 8b       	std	Z+17, r25	; 0x11
    2b5a:	80 8b       	std	Z+16, r24	; 0x10
    2b5c:	81 ec       	ldi	r24, 0xC1	; 193
    2b5e:	90 e0       	ldi	r25, 0x00	; 0
    2b60:	93 8b       	std	Z+19, r25	; 0x13
    2b62:	82 8b       	std	Z+18, r24	; 0x12
    2b64:	82 ec       	ldi	r24, 0xC2	; 194
    2b66:	90 e0       	ldi	r25, 0x00	; 0
    2b68:	95 8b       	std	Z+21, r25	; 0x15
    2b6a:	84 8b       	std	Z+20, r24	; 0x14
    2b6c:	86 ec       	ldi	r24, 0xC6	; 198
    2b6e:	90 e0       	ldi	r25, 0x00	; 0
    2b70:	97 8b       	std	Z+23, r25	; 0x17
    2b72:	86 8b       	std	Z+22, r24	; 0x16
    2b74:	11 8e       	std	Z+25, r1	; 0x19
    2b76:	12 8e       	std	Z+26, r1	; 0x1a
    2b78:	13 8e       	std	Z+27, r1	; 0x1b
    2b7a:	14 8e       	std	Z+28, r1	; 0x1c
    2b7c:	08 95       	ret

00002b7e <_Znwj>:
    2b7e:	0c 94 e0 1c 	jmp	0x39c0	; 0x39c0 <malloc>

00002b82 <_Znaj>:
    2b82:	0c 94 e0 1c 	jmp	0x39c0	; 0x39c0 <malloc>

00002b86 <_ZdlPv>:
    2b86:	0c 94 7c 1d 	jmp	0x3af8	; 0x3af8 <free>

00002b8a <_ZdaPv>:
    2b8a:	0c 94 7c 1d 	jmp	0x3af8	; 0x3af8 <free>

00002b8e <_ZN5Print5writeEPKhj>:
    2b8e:	af 92       	push	r10
    2b90:	bf 92       	push	r11
    2b92:	cf 92       	push	r12
    2b94:	df 92       	push	r13
    2b96:	ef 92       	push	r14
    2b98:	ff 92       	push	r15
    2b9a:	0f 93       	push	r16
    2b9c:	1f 93       	push	r17
    2b9e:	cf 93       	push	r28
    2ba0:	df 93       	push	r29
    2ba2:	6c 01       	movw	r12, r24
    2ba4:	7b 01       	movw	r14, r22
    2ba6:	8b 01       	movw	r16, r22
    2ba8:	04 0f       	add	r16, r20
    2baa:	15 1f       	adc	r17, r21
    2bac:	eb 01       	movw	r28, r22
    2bae:	5e 01       	movw	r10, r28
    2bb0:	ae 18       	sub	r10, r14
    2bb2:	bf 08       	sbc	r11, r15
    2bb4:	c0 17       	cp	r28, r16
    2bb6:	d1 07       	cpc	r29, r17
    2bb8:	59 f0       	breq	.+22     	; 0x2bd0 <_ZN5Print5writeEPKhj+0x42>
    2bba:	69 91       	ld	r22, Y+
    2bbc:	d6 01       	movw	r26, r12
    2bbe:	ed 91       	ld	r30, X+
    2bc0:	fc 91       	ld	r31, X
    2bc2:	01 90       	ld	r0, Z+
    2bc4:	f0 81       	ld	r31, Z
    2bc6:	e0 2d       	mov	r30, r0
    2bc8:	c6 01       	movw	r24, r12
    2bca:	09 95       	icall
    2bcc:	89 2b       	or	r24, r25
    2bce:	79 f7       	brne	.-34     	; 0x2bae <_ZN5Print5writeEPKhj+0x20>
    2bd0:	c5 01       	movw	r24, r10
    2bd2:	df 91       	pop	r29
    2bd4:	cf 91       	pop	r28
    2bd6:	1f 91       	pop	r17
    2bd8:	0f 91       	pop	r16
    2bda:	ff 90       	pop	r15
    2bdc:	ef 90       	pop	r14
    2bde:	df 90       	pop	r13
    2be0:	cf 90       	pop	r12
    2be2:	bf 90       	pop	r11
    2be4:	af 90       	pop	r10
    2be6:	08 95       	ret

00002be8 <_ZN5Print5writeEPKc.part.2>:
    2be8:	fb 01       	movw	r30, r22
    2bea:	01 90       	ld	r0, Z+
    2bec:	00 20       	and	r0, r0
    2bee:	e9 f7       	brne	.-6      	; 0x2bea <_ZN5Print5writeEPKc.part.2+0x2>
    2bf0:	31 97       	sbiw	r30, 0x01	; 1
    2bf2:	af 01       	movw	r20, r30
    2bf4:	46 1b       	sub	r20, r22
    2bf6:	57 0b       	sbc	r21, r23
    2bf8:	dc 01       	movw	r26, r24
    2bfa:	ed 91       	ld	r30, X+
    2bfc:	fc 91       	ld	r31, X
    2bfe:	02 80       	ldd	r0, Z+2	; 0x02
    2c00:	f3 81       	ldd	r31, Z+3	; 0x03
    2c02:	e0 2d       	mov	r30, r0
    2c04:	09 94       	ijmp

00002c06 <_ZN5Print5printEPKc>:
    2c06:	61 15       	cp	r22, r1
    2c08:	71 05       	cpc	r23, r1
    2c0a:	11 f0       	breq	.+4      	; 0x2c10 <_ZN5Print5printEPKc+0xa>
    2c0c:	0c 94 f4 15 	jmp	0x2be8	; 0x2be8 <_ZN5Print5writeEPKc.part.2>
    2c10:	90 e0       	ldi	r25, 0x00	; 0
    2c12:	80 e0       	ldi	r24, 0x00	; 0
    2c14:	08 95       	ret

00002c16 <OsEE_atmega_startTimer1>:
    2c16:	10 92 81 00 	sts	0x0081, r1	; 0x800081 <__DATA_REGION_ORIGIN__+0x21>
    2c1a:	10 92 80 00 	sts	0x0080, r1	; 0x800080 <__DATA_REGION_ORIGIN__+0x20>
    2c1e:	10 92 82 00 	sts	0x0082, r1	; 0x800082 <__DATA_REGION_ORIGIN__+0x22>
    2c22:	10 92 85 00 	sts	0x0085, r1	; 0x800085 <__DATA_REGION_ORIGIN__+0x25>
    2c26:	10 92 84 00 	sts	0x0084, r1	; 0x800084 <__DATA_REGION_ORIGIN__+0x24>
    2c2a:	61 15       	cp	r22, r1
    2c2c:	20 e1       	ldi	r18, 0x10	; 16
    2c2e:	72 07       	cpc	r23, r18
    2c30:	81 05       	cpc	r24, r1
    2c32:	91 05       	cpc	r25, r1
    2c34:	a0 f4       	brcc	.+40     	; 0x2c5e <OsEE_atmega_startTimer1+0x48>
    2c36:	e4 e0       	ldi	r30, 0x04	; 4
    2c38:	66 0f       	add	r22, r22
    2c3a:	77 1f       	adc	r23, r23
    2c3c:	ea 95       	dec	r30
    2c3e:	e1 f7       	brne	.-8      	; 0x2c38 <OsEE_atmega_startTimer1+0x22>
    2c40:	61 50       	subi	r22, 0x01	; 1
    2c42:	71 09       	sbc	r23, r1
    2c44:	81 e0       	ldi	r24, 0x01	; 1
    2c46:	92 e0       	ldi	r25, 0x02	; 2
    2c48:	96 bb       	out	0x16, r25	; 22
    2c4a:	90 93 6f 00 	sts	0x006F, r25	; 0x80006f <__DATA_REGION_ORIGIN__+0xf>
    2c4e:	70 93 89 00 	sts	0x0089, r23	; 0x800089 <__DATA_REGION_ORIGIN__+0x29>
    2c52:	60 93 88 00 	sts	0x0088, r22	; 0x800088 <__DATA_REGION_ORIGIN__+0x28>
    2c56:	88 60       	ori	r24, 0x08	; 8
    2c58:	80 93 81 00 	sts	0x0081, r24	; 0x800081 <__DATA_REGION_ORIGIN__+0x21>
    2c5c:	08 95       	ret
    2c5e:	61 15       	cp	r22, r1
    2c60:	20 e8       	ldi	r18, 0x80	; 128
    2c62:	72 07       	cpc	r23, r18
    2c64:	81 05       	cpc	r24, r1
    2c66:	91 05       	cpc	r25, r1
    2c68:	30 f4       	brcc	.+12     	; 0x2c76 <OsEE_atmega_startTimer1+0x60>
    2c6a:	66 0f       	add	r22, r22
    2c6c:	77 1f       	adc	r23, r23
    2c6e:	61 50       	subi	r22, 0x01	; 1
    2c70:	71 09       	sbc	r23, r1
    2c72:	82 e0       	ldi	r24, 0x02	; 2
    2c74:	e8 cf       	rjmp	.-48     	; 0x2c46 <OsEE_atmega_startTimer1+0x30>
    2c76:	6c 3f       	cpi	r22, 0xFC	; 252
    2c78:	2f ef       	ldi	r18, 0xFF	; 255
    2c7a:	72 07       	cpc	r23, r18
    2c7c:	23 e0       	ldi	r18, 0x03	; 3
    2c7e:	82 07       	cpc	r24, r18
    2c80:	91 05       	cpc	r25, r1
    2c82:	58 f4       	brcc	.+22     	; 0x2c9a <OsEE_atmega_startTimer1+0x84>
    2c84:	42 e0       	ldi	r20, 0x02	; 2
    2c86:	96 95       	lsr	r25
    2c88:	87 95       	ror	r24
    2c8a:	77 95       	ror	r23
    2c8c:	67 95       	ror	r22
    2c8e:	4a 95       	dec	r20
    2c90:	d1 f7       	brne	.-12     	; 0x2c86 <OsEE_atmega_startTimer1+0x70>
    2c92:	61 50       	subi	r22, 0x01	; 1
    2c94:	71 09       	sbc	r23, r1
    2c96:	83 e0       	ldi	r24, 0x03	; 3
    2c98:	d6 cf       	rjmp	.-84     	; 0x2c46 <OsEE_atmega_startTimer1+0x30>
    2c9a:	61 15       	cp	r22, r1
    2c9c:	71 05       	cpc	r23, r1
    2c9e:	20 e1       	ldi	r18, 0x10	; 16
    2ca0:	82 07       	cpc	r24, r18
    2ca2:	91 05       	cpc	r25, r1
    2ca4:	58 f4       	brcc	.+22     	; 0x2cbc <OsEE_atmega_startTimer1+0xa6>
    2ca6:	34 e0       	ldi	r19, 0x04	; 4
    2ca8:	96 95       	lsr	r25
    2caa:	87 95       	ror	r24
    2cac:	77 95       	ror	r23
    2cae:	67 95       	ror	r22
    2cb0:	3a 95       	dec	r19
    2cb2:	d1 f7       	brne	.-12     	; 0x2ca8 <OsEE_atmega_startTimer1+0x92>
    2cb4:	61 50       	subi	r22, 0x01	; 1
    2cb6:	71 09       	sbc	r23, r1
    2cb8:	84 e0       	ldi	r24, 0x04	; 4
    2cba:	c5 cf       	rjmp	.-118    	; 0x2c46 <OsEE_atmega_startTimer1+0x30>
    2cbc:	26 e0       	ldi	r18, 0x06	; 6
    2cbe:	96 95       	lsr	r25
    2cc0:	87 95       	ror	r24
    2cc2:	77 95       	ror	r23
    2cc4:	67 95       	ror	r22
    2cc6:	2a 95       	dec	r18
    2cc8:	d1 f7       	brne	.-12     	; 0x2cbe <OsEE_atmega_startTimer1+0xa8>
    2cca:	61 50       	subi	r22, 0x01	; 1
    2ccc:	71 09       	sbc	r23, r1
    2cce:	85 e0       	ldi	r24, 0x05	; 5
    2cd0:	ba cf       	rjmp	.-140    	; 0x2c46 <OsEE_atmega_startTimer1+0x30>

00002cd2 <StartOS>:
    2cd2:	7f 92       	push	r7
    2cd4:	8f 92       	push	r8
    2cd6:	9f 92       	push	r9
    2cd8:	af 92       	push	r10
    2cda:	bf 92       	push	r11
    2cdc:	cf 92       	push	r12
    2cde:	df 92       	push	r13
    2ce0:	ef 92       	push	r14
    2ce2:	ff 92       	push	r15
    2ce4:	0f 93       	push	r16
    2ce6:	1f 93       	push	r17
    2ce8:	cf 93       	push	r28
    2cea:	df 93       	push	r29
    2cec:	00 d0       	rcall	.+0      	; 0x2cee <StartOS+0x1c>
    2cee:	cd b7       	in	r28, 0x3d	; 61
    2cf0:	de b7       	in	r29, 0x3e	; 62
    2cf2:	00 91 17 02 	lds	r16, 0x0217	; 0x800217 <osEE_cdb_var>
    2cf6:	10 91 18 02 	lds	r17, 0x0218	; 0x800218 <osEE_cdb_var+0x1>
    2cfa:	9f b7       	in	r25, 0x3f	; 63
    2cfc:	f8 94       	cli
    2cfe:	d8 01       	movw	r26, r16
    2d00:	18 96       	adiw	r26, 0x08	; 8
    2d02:	2d 91       	ld	r18, X+
    2d04:	3c 91       	ld	r19, X
    2d06:	23 2b       	or	r18, r19
    2d08:	99 f0       	breq	.+38     	; 0x2d30 <StartOS+0x5e>
    2d0a:	9f bf       	out	0x3f, r25	; 63
    2d0c:	81 e0       	ldi	r24, 0x01	; 1
    2d0e:	90 e0       	ldi	r25, 0x00	; 0
    2d10:	0f 90       	pop	r0
    2d12:	0f 90       	pop	r0
    2d14:	df 91       	pop	r29
    2d16:	cf 91       	pop	r28
    2d18:	1f 91       	pop	r17
    2d1a:	0f 91       	pop	r16
    2d1c:	ff 90       	pop	r15
    2d1e:	ef 90       	pop	r14
    2d20:	df 90       	pop	r13
    2d22:	cf 90       	pop	r12
    2d24:	bf 90       	pop	r11
    2d26:	af 90       	pop	r10
    2d28:	9f 90       	pop	r9
    2d2a:	8f 90       	pop	r8
    2d2c:	7f 90       	pop	r7
    2d2e:	08 95       	ret
    2d30:	2a e9       	ldi	r18, 0x9A	; 154
    2d32:	3b e1       	ldi	r19, 0x1B	; 27
    2d34:	3a 83       	std	Y+2, r19	; 0x02
    2d36:	29 83       	std	Y+1, r18	; 0x01
    2d38:	c0 90 19 02 	lds	r12, 0x0219	; 0x800219 <osEE_cdb_var+0x2>
    2d3c:	d0 90 1a 02 	lds	r13, 0x021A	; 0x80021a <osEE_cdb_var+0x3>
    2d40:	21 e0       	ldi	r18, 0x01	; 1
    2d42:	30 e0       	ldi	r19, 0x00	; 0
    2d44:	f8 01       	movw	r30, r16
    2d46:	31 87       	std	Z+9, r19	; 0x09
    2d48:	20 87       	std	Z+8, r18	; 0x08
    2d4a:	82 87       	std	Z+10, r24	; 0x0a
    2d4c:	e0 91 1b 02 	lds	r30, 0x021B	; 0x80021b <osEE_cdb_var+0x4>
    2d50:	f0 91 1c 02 	lds	r31, 0x021C	; 0x80021c <osEE_cdb_var+0x5>
    2d54:	24 e0       	ldi	r18, 0x04	; 4
    2d56:	82 9f       	mul	r24, r18
    2d58:	c0 01       	movw	r24, r0
    2d5a:	11 24       	eor	r1, r1
    2d5c:	e8 0f       	add	r30, r24
    2d5e:	f9 1f       	adc	r31, r25
    2d60:	a2 80       	ldd	r10, Z+2	; 0x02
    2d62:	b3 80       	ldd	r11, Z+3	; 0x03
    2d64:	f1 2c       	mov	r15, r1
    2d66:	e1 2c       	mov	r14, r1
    2d68:	4f 01       	movw	r8, r30
    2d6a:	86 e0       	ldi	r24, 0x06	; 6
    2d6c:	78 2e       	mov	r7, r24
    2d6e:	ea 14       	cp	r14, r10
    2d70:	fb 04       	cpc	r15, r11
    2d72:	e1 f4       	brne	.+56     	; 0x2dac <StartOS+0xda>
    2d74:	f8 01       	movw	r30, r16
    2d76:	80 85       	ldd	r24, Z+8	; 0x08
    2d78:	91 85       	ldd	r25, Z+9	; 0x09
    2d7a:	01 97       	sbiw	r24, 0x01	; 1
    2d7c:	21 f4       	brne	.+8      	; 0x2d86 <StartOS+0xb4>
    2d7e:	82 e0       	ldi	r24, 0x02	; 2
    2d80:	90 e0       	ldi	r25, 0x00	; 0
    2d82:	91 87       	std	Z+9, r25	; 0x09
    2d84:	80 87       	std	Z+8, r24	; 0x08
    2d86:	d8 01       	movw	r26, r16
    2d88:	18 96       	adiw	r26, 0x08	; 8
    2d8a:	8d 91       	ld	r24, X+
    2d8c:	9c 91       	ld	r25, X
    2d8e:	02 97       	sbiw	r24, 0x02	; 2
    2d90:	51 f4       	brne	.+20     	; 0x2da6 <StartOS+0xd4>
    2d92:	f6 01       	movw	r30, r12
    2d94:	62 81       	ldd	r22, Z+2	; 0x02
    2d96:	73 81       	ldd	r23, Z+3	; 0x03
    2d98:	ab 01       	movw	r20, r22
    2d9a:	c6 01       	movw	r24, r12
    2d9c:	0e 94 d2 00 	call	0x1a4	; 0x1a4 <osEE_hal_save_ctx_and_ready2stacked>
    2da0:	c6 01       	movw	r24, r12
    2da2:	0e 94 6e 18 	call	0x30dc	; 0x30dc <osEE_task_end>
    2da6:	90 e0       	ldi	r25, 0x00	; 0
    2da8:	80 e0       	ldi	r24, 0x00	; 0
    2daa:	b2 cf       	rjmp	.-156    	; 0x2d10 <StartOS+0x3e>
    2dac:	d4 01       	movw	r26, r8
    2dae:	ed 91       	ld	r30, X+
    2db0:	fc 91       	ld	r31, X
    2db2:	7e 9c       	mul	r7, r14
    2db4:	c0 01       	movw	r24, r0
    2db6:	7f 9c       	mul	r7, r15
    2db8:	90 0d       	add	r25, r0
    2dba:	11 24       	eor	r1, r1
    2dbc:	e8 0f       	add	r30, r24
    2dbe:	f9 1f       	adc	r31, r25
    2dc0:	a0 81       	ld	r26, Z
    2dc2:	b1 81       	ldd	r27, Z+1	; 0x01
    2dc4:	24 81       	ldd	r18, Z+4	; 0x04
    2dc6:	35 81       	ldd	r19, Z+5	; 0x05
    2dc8:	42 81       	ldd	r20, Z+2	; 0x02
    2dca:	53 81       	ldd	r21, Z+3	; 0x03
    2dcc:	bd 01       	movw	r22, r26
    2dce:	12 96       	adiw	r26, 0x02	; 2
    2dd0:	8d 91       	ld	r24, X+
    2dd2:	9c 91       	ld	r25, X
    2dd4:	0e 94 07 1b 	call	0x360e	; 0x360e <osEE_alarm_set_rel>
    2dd8:	bf ef       	ldi	r27, 0xFF	; 255
    2dda:	eb 1a       	sub	r14, r27
    2ddc:	fb 0a       	sbc	r15, r27
    2dde:	c7 cf       	rjmp	.-114    	; 0x2d6e <StartOS+0x9c>

00002de0 <TerminateTask>:
    2de0:	e0 91 17 02 	lds	r30, 0x0217	; 0x800217 <osEE_cdb_var>
    2de4:	f0 91 18 02 	lds	r31, 0x0218	; 0x800218 <osEE_cdb_var+0x1>
    2de8:	a0 81       	ld	r26, Z
    2dea:	b1 81       	ldd	r27, Z+1	; 0x01
    2dec:	87 85       	ldd	r24, Z+15	; 0x0f
    2dee:	88 23       	and	r24, r24
    2df0:	19 f0       	breq	.+6      	; 0x2df8 <TerminateTask+0x18>
    2df2:	17 86       	std	Z+15, r1	; 0x0f
    2df4:	85 85       	ldd	r24, Z+13	; 0x0d
    2df6:	8f bf       	out	0x3f, r24	; 63
    2df8:	81 89       	ldd	r24, Z+17	; 0x11
    2dfa:	88 23       	and	r24, r24
    2dfc:	11 f0       	breq	.+4      	; 0x2e02 <TerminateTask+0x22>
    2dfe:	11 8a       	std	Z+17, r1	; 0x11
    2e00:	78 94       	sei
    2e02:	8f b7       	in	r24, 0x3f	; 63
    2e04:	f8 94       	cli
    2e06:	62 e8       	ldi	r22, 0x82	; 130
    2e08:	7b e1       	ldi	r23, 0x1B	; 27
    2e0a:	12 96       	adiw	r26, 0x02	; 2
    2e0c:	8d 91       	ld	r24, X+
    2e0e:	9c 91       	ld	r25, X
    2e10:	0e 94 f2 00 	call	0x1e4	; 0x1e4 <osEE_hal_terminate_ctx>

00002e14 <IncrementCounter>:
    2e14:	cf 93       	push	r28
    2e16:	90 e0       	ldi	r25, 0x00	; 0
    2e18:	20 91 11 02 	lds	r18, 0x0211	; 0x800211 <osEE_kdb_var+0xc>
    2e1c:	30 91 12 02 	lds	r19, 0x0212	; 0x800212 <osEE_kdb_var+0xd>
    2e20:	82 17       	cp	r24, r18
    2e22:	93 07       	cpc	r25, r19
    2e24:	18 f5       	brcc	.+70     	; 0x2e6c <IncrementCounter+0x58>
    2e26:	20 91 0f 02 	lds	r18, 0x020F	; 0x80020f <osEE_kdb_var+0xa>
    2e2a:	30 91 10 02 	lds	r19, 0x0210	; 0x800210 <osEE_kdb_var+0xb>
    2e2e:	88 0f       	add	r24, r24
    2e30:	99 1f       	adc	r25, r25
    2e32:	82 0f       	add	r24, r18
    2e34:	93 1f       	adc	r25, r19
    2e36:	fc 01       	movw	r30, r24
    2e38:	80 81       	ld	r24, Z
    2e3a:	91 81       	ldd	r25, Z+1	; 0x01
    2e3c:	cf b7       	in	r28, 0x3f	; 63
    2e3e:	f8 94       	cli
    2e40:	0e 94 41 1a 	call	0x3482	; 0x3482 <osEE_counter_increment>
    2e44:	e0 91 17 02 	lds	r30, 0x0217	; 0x800217 <osEE_cdb_var>
    2e48:	f0 91 18 02 	lds	r31, 0x0218	; 0x800218 <osEE_cdb_var+0x1>
    2e4c:	01 90       	ld	r0, Z+
    2e4e:	f0 81       	ld	r31, Z
    2e50:	e0 2d       	mov	r30, r0
    2e52:	87 81       	ldd	r24, Z+7	; 0x07
    2e54:	90 85       	ldd	r25, Z+8	; 0x08
    2e56:	02 97       	sbiw	r24, 0x02	; 2
    2e58:	20 f4       	brcc	.+8      	; 0x2e62 <IncrementCounter+0x4e>
    2e5a:	85 e0       	ldi	r24, 0x05	; 5
    2e5c:	92 e0       	ldi	r25, 0x02	; 2
    2e5e:	0e 94 7b 19 	call	0x32f6	; 0x32f6 <osEE_scheduler_task_preemption_point>
    2e62:	cf bf       	out	0x3f, r28	; 63
    2e64:	90 e0       	ldi	r25, 0x00	; 0
    2e66:	80 e0       	ldi	r24, 0x00	; 0
    2e68:	cf 91       	pop	r28
    2e6a:	08 95       	ret
    2e6c:	83 e0       	ldi	r24, 0x03	; 3
    2e6e:	90 e0       	ldi	r25, 0x00	; 0
    2e70:	fb cf       	rjmp	.-10     	; 0x2e68 <IncrementCounter+0x54>

00002e72 <osEE_scheduler_task_wrapper_restore>:
    2e72:	dc 01       	movw	r26, r24
    2e74:	14 96       	adiw	r26, 0x04	; 4
    2e76:	ed 91       	ld	r30, X+
    2e78:	fc 91       	ld	r31, X
    2e7a:	84 e0       	ldi	r24, 0x04	; 4
    2e7c:	90 e0       	ldi	r25, 0x00	; 0
    2e7e:	93 83       	std	Z+3, r25	; 0x03
    2e80:	82 83       	std	Z+2, r24	; 0x02
    2e82:	08 95       	ret

00002e84 <osEE_scheduler_task_wrapper_run>:
    2e84:	ec 01       	movw	r28, r24
    2e86:	ec 81       	ldd	r30, Y+4	; 0x04
    2e88:	fd 81       	ldd	r31, Y+5	; 0x05
    2e8a:	81 81       	ldd	r24, Z+1	; 0x01
    2e8c:	24 e0       	ldi	r18, 0x04	; 4
    2e8e:	30 e0       	ldi	r19, 0x00	; 0
    2e90:	33 83       	std	Z+3, r19	; 0x03
    2e92:	22 83       	std	Z+2, r18	; 0x02
    2e94:	8f 3f       	cpi	r24, 0xFF	; 255
    2e96:	09 f0       	breq	.+2      	; 0x2e9a <osEE_scheduler_task_wrapper_run+0x16>
    2e98:	78 94       	sei
    2e9a:	e9 85       	ldd	r30, Y+9	; 0x09
    2e9c:	fa 85       	ldd	r31, Y+10	; 0x0a
    2e9e:	09 95       	icall
    2ea0:	e0 91 17 02 	lds	r30, 0x0217	; 0x800217 <osEE_cdb_var>
    2ea4:	f0 91 18 02 	lds	r31, 0x0218	; 0x800218 <osEE_cdb_var+0x1>
    2ea8:	10 8a       	std	Z+16, r1	; 0x10
    2eaa:	87 85       	ldd	r24, Z+15	; 0x0f
    2eac:	88 23       	and	r24, r24
    2eae:	19 f0       	breq	.+6      	; 0x2eb6 <osEE_scheduler_task_wrapper_run+0x32>
    2eb0:	17 86       	std	Z+15, r1	; 0x0f
    2eb2:	85 85       	ldd	r24, Z+13	; 0x0d
    2eb4:	8f bf       	out	0x3f, r24	; 63
    2eb6:	81 89       	ldd	r24, Z+17	; 0x11
    2eb8:	88 23       	and	r24, r24
    2eba:	11 f0       	breq	.+4      	; 0x2ec0 <osEE_scheduler_task_wrapper_run+0x3c>
    2ebc:	11 8a       	std	Z+17, r1	; 0x11
    2ebe:	78 94       	sei
    2ec0:	8f b7       	in	r24, 0x3f	; 63
    2ec2:	f8 94       	cli
    2ec4:	8f 81       	ldd	r24, Y+7	; 0x07
    2ec6:	98 85       	ldd	r25, Y+8	; 0x08
    2ec8:	ec 81       	ldd	r30, Y+4	; 0x04
    2eca:	fd 81       	ldd	r31, Y+5	; 0x05
    2ecc:	02 97       	sbiw	r24, 0x02	; 2
    2ece:	09 f5       	brne	.+66     	; 0x2f12 <osEE_scheduler_task_wrapper_run+0x8e>
    2ed0:	a4 81       	ldd	r26, Z+4	; 0x04
    2ed2:	b5 81       	ldd	r27, Z+5	; 0x05
    2ed4:	10 97       	sbiw	r26, 0x00	; 0
    2ed6:	31 f4       	brne	.+12     	; 0x2ee4 <osEE_scheduler_task_wrapper_run+0x60>
    2ed8:	62 e8       	ldi	r22, 0x82	; 130
    2eda:	7b e1       	ldi	r23, 0x1B	; 27
    2edc:	8a 81       	ldd	r24, Y+2	; 0x02
    2ede:	9b 81       	ldd	r25, Y+3	; 0x03
    2ee0:	0e 94 f2 00 	call	0x1e4	; 0x1e4 <osEE_hal_terminate_ctx>
    2ee4:	0d 90       	ld	r0, X+
    2ee6:	bc 91       	ld	r27, X
    2ee8:	a0 2d       	mov	r26, r0
    2eea:	14 96       	adiw	r26, 0x04	; 4
    2eec:	1c 92       	st	X, r1
    2eee:	1e 92       	st	-X, r1
    2ef0:	13 97       	sbiw	r26, 0x03	; 3
    2ef2:	8d 91       	ld	r24, X+
    2ef4:	9c 91       	ld	r25, X
    2ef6:	95 83       	std	Z+5, r25	; 0x05
    2ef8:	84 83       	std	Z+4, r24	; 0x04
    2efa:	ea cf       	rjmp	.-44     	; 0x2ed0 <osEE_scheduler_task_wrapper_run+0x4c>
    2efc:	0d 90       	ld	r0, X+
    2efe:	bc 91       	ld	r27, X
    2f00:	a0 2d       	mov	r26, r0
    2f02:	14 96       	adiw	r26, 0x04	; 4
    2f04:	1c 92       	st	X, r1
    2f06:	1e 92       	st	-X, r1
    2f08:	13 97       	sbiw	r26, 0x03	; 3
    2f0a:	8d 91       	ld	r24, X+
    2f0c:	9c 91       	ld	r25, X
    2f0e:	95 83       	std	Z+5, r25	; 0x05
    2f10:	84 83       	std	Z+4, r24	; 0x04
    2f12:	a4 81       	ldd	r26, Z+4	; 0x04
    2f14:	b5 81       	ldd	r27, Z+5	; 0x05
    2f16:	10 97       	sbiw	r26, 0x00	; 0
    2f18:	89 f7       	brne	.-30     	; 0x2efc <osEE_scheduler_task_wrapper_run+0x78>
    2f1a:	de cf       	rjmp	.-68     	; 0x2ed8 <osEE_scheduler_task_wrapper_run+0x54>

00002f1c <osEE_idle_hook_wrapper>:
    2f1c:	e0 91 17 02 	lds	r30, 0x0217	; 0x800217 <osEE_cdb_var>
    2f20:	f0 91 18 02 	lds	r31, 0x0218	; 0x800218 <osEE_cdb_var+0x1>
    2f24:	80 85       	ldd	r24, Z+8	; 0x08
    2f26:	91 85       	ldd	r25, Z+9	; 0x09
    2f28:	02 97       	sbiw	r24, 0x02	; 2
    2f2a:	e1 f3       	breq	.-8      	; 0x2f24 <osEE_idle_hook_wrapper+0x8>
    2f2c:	80 91 19 02 	lds	r24, 0x0219	; 0x800219 <osEE_cdb_var+0x2>
    2f30:	90 91 1a 02 	lds	r25, 0x021A	; 0x80021a <osEE_cdb_var+0x3>
    2f34:	0c 94 67 1b 	jmp	0x36ce	; 0x36ce <osEE_idle_task_terminate>

00002f38 <osEE_scheduler_core_rq_preempt_stk>:
    2f38:	0f 93       	push	r16
    2f3a:	1f 93       	push	r17
    2f3c:	cf 93       	push	r28
    2f3e:	df 93       	push	r29
    2f40:	ec 01       	movw	r28, r24
    2f42:	a8 81       	ld	r26, Y
    2f44:	b9 81       	ldd	r27, Y+1	; 0x01
    2f46:	eb 01       	movw	r28, r22
    2f48:	e8 81       	ld	r30, Y
    2f4a:	f9 81       	ldd	r31, Y+1	; 0x01
    2f4c:	16 96       	adiw	r26, 0x06	; 6
    2f4e:	cd 91       	ld	r28, X+
    2f50:	dc 91       	ld	r29, X
    2f52:	17 97       	sbiw	r26, 0x07	; 7
    2f54:	20 97       	sbiw	r28, 0x00	; 0
    2f56:	c1 f1       	breq	.+112    	; 0x2fc8 <osEE_scheduler_core_rq_preempt_stk+0x90>
    2f58:	8a 81       	ldd	r24, Y+2	; 0x02
    2f5a:	9b 81       	ldd	r25, Y+3	; 0x03
    2f5c:	30 97       	sbiw	r30, 0x00	; 0
    2f5e:	09 f4       	brne	.+2      	; 0x2f62 <osEE_scheduler_core_rq_preempt_stk+0x2a>
    2f60:	3f c0       	rjmp	.+126    	; 0x2fe0 <osEE_scheduler_core_rq_preempt_stk+0xa8>
    2f62:	ec 01       	movw	r28, r24
    2f64:	0c 81       	ldd	r16, Y+4	; 0x04
    2f66:	1d 81       	ldd	r17, Y+5	; 0x05
    2f68:	22 81       	ldd	r18, Z+2	; 0x02
    2f6a:	33 81       	ldd	r19, Z+3	; 0x03
    2f6c:	e9 01       	movw	r28, r18
    2f6e:	4c 81       	ldd	r20, Y+4	; 0x04
    2f70:	5d 81       	ldd	r21, Y+5	; 0x05
    2f72:	e8 01       	movw	r28, r16
    2f74:	39 81       	ldd	r19, Y+1	; 0x01
    2f76:	ea 01       	movw	r28, r20
    2f78:	29 81       	ldd	r18, Y+1	; 0x01
    2f7a:	32 17       	cp	r19, r18
    2f7c:	88 f5       	brcc	.+98     	; 0x2fe0 <osEE_scheduler_core_rq_preempt_stk+0xa8>
    2f7e:	22 e0       	ldi	r18, 0x02	; 2
    2f80:	30 e0       	ldi	r19, 0x00	; 0
    2f82:	e8 01       	movw	r28, r16
    2f84:	3b 83       	std	Y+3, r19	; 0x03
    2f86:	2a 83       	std	Y+2, r18	; 0x02
    2f88:	20 81       	ld	r18, Z
    2f8a:	31 81       	ldd	r19, Z+1	; 0x01
    2f8c:	eb 01       	movw	r28, r22
    2f8e:	39 83       	std	Y+1, r19	; 0x01
    2f90:	28 83       	st	Y, r18
    2f92:	c2 81       	ldd	r28, Z+2	; 0x02
    2f94:	d3 81       	ldd	r29, Z+3	; 0x03
    2f96:	2c 81       	ldd	r18, Y+4	; 0x04
    2f98:	3d 81       	ldd	r19, Y+5	; 0x05
    2f9a:	16 96       	adiw	r26, 0x06	; 6
    2f9c:	4d 91       	ld	r20, X+
    2f9e:	5c 91       	ld	r21, X
    2fa0:	17 97       	sbiw	r26, 0x07	; 7
    2fa2:	51 83       	std	Z+1, r21	; 0x01
    2fa4:	40 83       	st	Z, r20
    2fa6:	17 96       	adiw	r26, 0x07	; 7
    2fa8:	fc 93       	st	X, r31
    2faa:	ee 93       	st	-X, r30
    2fac:	16 97       	sbiw	r26, 0x06	; 6
    2fae:	cd 93       	st	X+, r28
    2fb0:	dc 93       	st	X, r29
    2fb2:	4c 85       	ldd	r20, Y+12	; 0x0c
    2fb4:	f9 01       	movw	r30, r18
    2fb6:	51 81       	ldd	r21, Z+1	; 0x01
    2fb8:	54 17       	cp	r21, r20
    2fba:	08 f4       	brcc	.+2      	; 0x2fbe <osEE_scheduler_core_rq_preempt_stk+0x86>
    2fbc:	41 83       	std	Z+1, r20	; 0x01
    2fbe:	df 91       	pop	r29
    2fc0:	cf 91       	pop	r28
    2fc2:	1f 91       	pop	r17
    2fc4:	0f 91       	pop	r16
    2fc6:	08 95       	ret
    2fc8:	30 97       	sbiw	r30, 0x00	; 0
    2fca:	51 f0       	breq	.+20     	; 0x2fe0 <osEE_scheduler_core_rq_preempt_stk+0xa8>
    2fcc:	ec 01       	movw	r28, r24
    2fce:	8a 81       	ldd	r24, Y+2	; 0x02
    2fd0:	9b 81       	ldd	r25, Y+3	; 0x03
    2fd2:	ec 01       	movw	r28, r24
    2fd4:	4c 81       	ldd	r20, Y+4	; 0x04
    2fd6:	5d 81       	ldd	r21, Y+5	; 0x05
    2fd8:	22 e0       	ldi	r18, 0x02	; 2
    2fda:	30 e0       	ldi	r19, 0x00	; 0
    2fdc:	ea 01       	movw	r28, r20
    2fde:	d2 cf       	rjmp	.-92     	; 0x2f84 <osEE_scheduler_core_rq_preempt_stk+0x4c>
    2fe0:	90 e0       	ldi	r25, 0x00	; 0
    2fe2:	80 e0       	ldi	r24, 0x00	; 0
    2fe4:	ec cf       	rjmp	.-40     	; 0x2fbe <osEE_scheduler_core_rq_preempt_stk+0x86>

00002fe6 <osEE_sn_priority_insert>:
    2fe6:	cf 93       	push	r28
    2fe8:	df 93       	push	r29
    2fea:	db 01       	movw	r26, r22
    2fec:	12 96       	adiw	r26, 0x02	; 2
    2fee:	ed 91       	ld	r30, X+
    2ff0:	fc 91       	ld	r31, X
    2ff2:	41 15       	cp	r20, r1
    2ff4:	51 05       	cpc	r21, r1
    2ff6:	a1 f0       	breq	.+40     	; 0x3020 <osEE_sn_priority_insert+0x3a>
    2ff8:	23 85       	ldd	r18, Z+11	; 0x0b
    2ffa:	dc 01       	movw	r26, r24
    2ffc:	ed 91       	ld	r30, X+
    2ffe:	fc 91       	ld	r31, X
    3000:	b0 e0       	ldi	r27, 0x00	; 0
    3002:	a0 e0       	ldi	r26, 0x00	; 0
    3004:	30 97       	sbiw	r30, 0x00	; 0
    3006:	89 f4       	brne	.+34     	; 0x302a <osEE_sn_priority_insert+0x44>
    3008:	10 97       	sbiw	r26, 0x00	; 0
    300a:	09 f1       	breq	.+66     	; 0x304e <osEE_sn_priority_insert+0x68>
    300c:	6d 93       	st	X+, r22
    300e:	7c 93       	st	X, r23
    3010:	90 e0       	ldi	r25, 0x00	; 0
    3012:	80 e0       	ldi	r24, 0x00	; 0
    3014:	db 01       	movw	r26, r22
    3016:	ed 93       	st	X+, r30
    3018:	fc 93       	st	X, r31
    301a:	df 91       	pop	r29
    301c:	cf 91       	pop	r28
    301e:	08 95       	ret
    3020:	04 80       	ldd	r0, Z+4	; 0x04
    3022:	f5 81       	ldd	r31, Z+5	; 0x05
    3024:	e0 2d       	mov	r30, r0
    3026:	21 81       	ldd	r18, Z+1	; 0x01
    3028:	e8 cf       	rjmp	.-48     	; 0x2ffa <osEE_sn_priority_insert+0x14>
    302a:	c2 81       	ldd	r28, Z+2	; 0x02
    302c:	d3 81       	ldd	r29, Z+3	; 0x03
    302e:	41 15       	cp	r20, r1
    3030:	51 05       	cpc	r21, r1
    3032:	41 f0       	breq	.+16     	; 0x3044 <osEE_sn_priority_insert+0x5e>
    3034:	3b 85       	ldd	r19, Y+11	; 0x0b
    3036:	32 17       	cp	r19, r18
    3038:	38 f3       	brcs	.-50     	; 0x3008 <osEE_sn_priority_insert+0x22>
    303a:	df 01       	movw	r26, r30
    303c:	01 90       	ld	r0, Z+
    303e:	f0 81       	ld	r31, Z
    3040:	e0 2d       	mov	r30, r0
    3042:	e0 cf       	rjmp	.-64     	; 0x3004 <osEE_sn_priority_insert+0x1e>
    3044:	0c 80       	ldd	r0, Y+4	; 0x04
    3046:	dd 81       	ldd	r29, Y+5	; 0x05
    3048:	c0 2d       	mov	r28, r0
    304a:	39 81       	ldd	r19, Y+1	; 0x01
    304c:	f4 cf       	rjmp	.-24     	; 0x3036 <osEE_sn_priority_insert+0x50>
    304e:	dc 01       	movw	r26, r24
    3050:	6d 93       	st	X+, r22
    3052:	7c 93       	st	X, r23
    3054:	81 e0       	ldi	r24, 0x01	; 1
    3056:	90 e0       	ldi	r25, 0x00	; 0
    3058:	dd cf       	rjmp	.-70     	; 0x3014 <osEE_sn_priority_insert+0x2e>

0000305a <osEE_scheduler_rq_insert>:
    305a:	fb 01       	movw	r30, r22
    305c:	53 83       	std	Z+3, r21	; 0x03
    305e:	42 83       	std	Z+2, r20	; 0x02
    3060:	41 e0       	ldi	r20, 0x01	; 1
    3062:	50 e0       	ldi	r21, 0x00	; 0
    3064:	0c 94 f3 17 	jmp	0x2fe6	; 0x2fe6 <osEE_sn_priority_insert>

00003068 <osEE_scheduler_core_pop_running>:
    3068:	ef 92       	push	r14
    306a:	ff 92       	push	r15
    306c:	0f 93       	push	r16
    306e:	1f 93       	push	r17
    3070:	cf 93       	push	r28
    3072:	df 93       	push	r29
    3074:	8c 01       	movw	r16, r24
    3076:	fc 01       	movw	r30, r24
    3078:	c0 81       	ld	r28, Z
    307a:	d1 81       	ldd	r29, Z+1	; 0x01
    307c:	ee 80       	ldd	r14, Y+6	; 0x06
    307e:	ff 80       	ldd	r15, Y+7	; 0x07
    3080:	f7 01       	movw	r30, r14
    3082:	80 81       	ld	r24, Z
    3084:	91 81       	ldd	r25, Z+1	; 0x01
    3086:	9f 83       	std	Y+7, r25	; 0x07
    3088:	8e 83       	std	Y+6, r24	; 0x06
    308a:	c8 01       	movw	r24, r16
    308c:	0e 94 9c 17 	call	0x2f38	; 0x2f38 <osEE_scheduler_core_rq_preempt_stk>
    3090:	89 2b       	or	r24, r25
    3092:	41 f4       	brne	.+16     	; 0x30a4 <osEE_scheduler_core_pop_running+0x3c>
    3094:	ee 81       	ldd	r30, Y+6	; 0x06
    3096:	ff 81       	ldd	r31, Y+7	; 0x07
    3098:	30 97       	sbiw	r30, 0x00	; 0
    309a:	61 f0       	breq	.+24     	; 0x30b4 <osEE_scheduler_core_pop_running+0x4c>
    309c:	82 81       	ldd	r24, Z+2	; 0x02
    309e:	93 81       	ldd	r25, Z+3	; 0x03
    30a0:	99 83       	std	Y+1, r25	; 0x01
    30a2:	88 83       	st	Y, r24
    30a4:	c7 01       	movw	r24, r14
    30a6:	df 91       	pop	r29
    30a8:	cf 91       	pop	r28
    30aa:	1f 91       	pop	r17
    30ac:	0f 91       	pop	r16
    30ae:	ff 90       	pop	r15
    30b0:	ef 90       	pop	r14
    30b2:	08 95       	ret
    30b4:	f8 01       	movw	r30, r16
    30b6:	f2 cf       	rjmp	.-28     	; 0x309c <osEE_scheduler_core_pop_running+0x34>

000030b8 <osEE_task_activated>:
    30b8:	dc 01       	movw	r26, r24
    30ba:	14 96       	adiw	r26, 0x04	; 4
    30bc:	ed 91       	ld	r30, X+
    30be:	fc 91       	ld	r31, X
    30c0:	15 97       	sbiw	r26, 0x05	; 5
    30c2:	90 81       	ld	r25, Z
    30c4:	1d 96       	adiw	r26, 0x0d	; 13
    30c6:	8c 91       	ld	r24, X
    30c8:	98 17       	cp	r25, r24
    30ca:	28 f4       	brcc	.+10     	; 0x30d6 <osEE_task_activated+0x1e>
    30cc:	9f 5f       	subi	r25, 0xFF	; 255
    30ce:	90 83       	st	Z, r25
    30d0:	90 e0       	ldi	r25, 0x00	; 0
    30d2:	80 e0       	ldi	r24, 0x00	; 0
    30d4:	08 95       	ret
    30d6:	84 e0       	ldi	r24, 0x04	; 4
    30d8:	90 e0       	ldi	r25, 0x00	; 0
    30da:	08 95       	ret

000030dc <osEE_task_end>:
    30dc:	dc 01       	movw	r26, r24
    30de:	14 96       	adiw	r26, 0x04	; 4
    30e0:	ed 91       	ld	r30, X+
    30e2:	fc 91       	ld	r31, X
    30e4:	15 97       	sbiw	r26, 0x05	; 5
    30e6:	1b 96       	adiw	r26, 0x0b	; 11
    30e8:	8c 91       	ld	r24, X
    30ea:	81 83       	std	Z+1, r24	; 0x01
    30ec:	80 81       	ld	r24, Z
    30ee:	81 50       	subi	r24, 0x01	; 1
    30f0:	80 83       	st	Z, r24
    30f2:	81 11       	cpse	r24, r1
    30f4:	03 c0       	rjmp	.+6      	; 0x30fc <osEE_task_end+0x20>
    30f6:	13 82       	std	Z+3, r1	; 0x03
    30f8:	12 82       	std	Z+2, r1	; 0x02
    30fa:	08 95       	ret
    30fc:	81 e0       	ldi	r24, 0x01	; 1
    30fe:	90 e0       	ldi	r25, 0x00	; 0
    3100:	93 83       	std	Z+3, r25	; 0x03
    3102:	82 83       	std	Z+2, r24	; 0x02
    3104:	08 95       	ret

00003106 <osEE_task_event_set_mask>:
    3106:	dc 01       	movw	r26, r24
    3108:	14 96       	adiw	r26, 0x04	; 4
    310a:	ed 91       	ld	r30, X+
    310c:	fc 91       	ld	r31, X
    310e:	80 85       	ldd	r24, Z+8	; 0x08
    3110:	91 85       	ldd	r25, Z+9	; 0x09
    3112:	86 2b       	or	r24, r22
    3114:	97 2b       	or	r25, r23
    3116:	91 87       	std	Z+9, r25	; 0x09
    3118:	80 87       	std	Z+8, r24	; 0x08
    311a:	da 01       	movw	r26, r20
    311c:	1d 92       	st	X+, r1
    311e:	1c 92       	st	X, r1
    3120:	86 81       	ldd	r24, Z+6	; 0x06
    3122:	97 81       	ldd	r25, Z+7	; 0x07
    3124:	68 23       	and	r22, r24
    3126:	79 23       	and	r23, r25
    3128:	67 2b       	or	r22, r23
    312a:	39 f0       	breq	.+14     	; 0x313a <osEE_task_event_set_mask+0x34>
    312c:	82 85       	ldd	r24, Z+10	; 0x0a
    312e:	93 85       	ldd	r25, Z+11	; 0x0b
    3130:	00 97       	sbiw	r24, 0x00	; 0
    3132:	29 f0       	breq	.+10     	; 0x313e <osEE_task_event_set_mask+0x38>
    3134:	13 86       	std	Z+11, r1	; 0x0b
    3136:	12 86       	std	Z+10, r1	; 0x0a
    3138:	08 95       	ret
    313a:	90 e0       	ldi	r25, 0x00	; 0
    313c:	80 e0       	ldi	r24, 0x00	; 0
    313e:	08 95       	ret

00003140 <osEE_activate_isr2>:
    3140:	e0 91 07 02 	lds	r30, 0x0207	; 0x800207 <osEE_kdb_var+0x2>
    3144:	f0 91 08 02 	lds	r31, 0x0208	; 0x800208 <osEE_kdb_var+0x3>
    3148:	90 e0       	ldi	r25, 0x00	; 0
    314a:	88 0f       	add	r24, r24
    314c:	99 1f       	adc	r25, r25
    314e:	e8 0f       	add	r30, r24
    3150:	f9 1f       	adc	r31, r25
    3152:	60 81       	ld	r22, Z
    3154:	71 81       	ldd	r23, Z+1	; 0x01
    3156:	db 01       	movw	r26, r22
    3158:	14 96       	adiw	r26, 0x04	; 4
    315a:	ed 91       	ld	r30, X+
    315c:	fc 91       	ld	r31, X
    315e:	80 81       	ld	r24, Z
    3160:	8f 5f       	subi	r24, 0xFF	; 255
    3162:	80 83       	st	Z, r24
    3164:	50 e0       	ldi	r21, 0x00	; 0
    3166:	40 e0       	ldi	r20, 0x00	; 0
    3168:	85 e0       	ldi	r24, 0x05	; 5
    316a:	92 e0       	ldi	r25, 0x02	; 2
    316c:	0c 94 96 19 	jmp	0x332c	; 0x332c <osEE_scheduler_task_set_running>

00003170 <osEE_scheduler_task_insert>:
    3170:	ab 01       	movw	r20, r22
    3172:	fb 01       	movw	r30, r22
    3174:	a4 81       	ldd	r26, Z+4	; 0x04
    3176:	b5 81       	ldd	r27, Z+5	; 0x05
    3178:	e0 91 17 02 	lds	r30, 0x0217	; 0x800217 <osEE_cdb_var>
    317c:	f0 91 18 02 	lds	r31, 0x0218	; 0x800218 <osEE_cdb_var+0x1>
    3180:	12 96       	adiw	r26, 0x02	; 2
    3182:	8d 91       	ld	r24, X+
    3184:	9c 91       	ld	r25, X
    3186:	13 97       	sbiw	r26, 0x03	; 3
    3188:	89 2b       	or	r24, r25
    318a:	51 f4       	brne	.+20     	; 0x31a0 <osEE_scheduler_task_insert+0x30>
    318c:	81 e0       	ldi	r24, 0x01	; 1
    318e:	90 e0       	ldi	r25, 0x00	; 0
    3190:	13 96       	adiw	r26, 0x03	; 3
    3192:	9c 93       	st	X, r25
    3194:	8e 93       	st	-X, r24
    3196:	12 97       	sbiw	r26, 0x02	; 2
    3198:	19 96       	adiw	r26, 0x09	; 9
    319a:	1c 92       	st	X, r1
    319c:	1e 92       	st	-X, r1
    319e:	18 97       	sbiw	r26, 0x08	; 8
    31a0:	a4 81       	ldd	r26, Z+4	; 0x04
    31a2:	b5 81       	ldd	r27, Z+5	; 0x05
    31a4:	8d 91       	ld	r24, X+
    31a6:	9c 91       	ld	r25, X
    31a8:	11 97       	sbiw	r26, 0x01	; 1
    31aa:	95 83       	std	Z+5, r25	; 0x05
    31ac:	84 83       	std	Z+4, r24	; 0x04
    31ae:	11 96       	adiw	r26, 0x01	; 1
    31b0:	1c 92       	st	X, r1
    31b2:	1e 92       	st	-X, r1
    31b4:	bd 01       	movw	r22, r26
    31b6:	cf 01       	movw	r24, r30
    31b8:	02 96       	adiw	r24, 0x02	; 2
    31ba:	0c 94 2d 18 	jmp	0x305a	; 0x305a <osEE_scheduler_rq_insert>

000031be <osEE_scheduler_task_unblocked>:
    31be:	0f 93       	push	r16
    31c0:	1f 93       	push	r17
    31c2:	cf 93       	push	r28
    31c4:	df 93       	push	r29
    31c6:	db 01       	movw	r26, r22
    31c8:	12 96       	adiw	r26, 0x02	; 2
    31ca:	4d 91       	ld	r20, X+
    31cc:	5c 91       	ld	r21, X
    31ce:	fa 01       	movw	r30, r20
    31d0:	c4 81       	ldd	r28, Z+4	; 0x04
    31d2:	d5 81       	ldd	r29, Z+5	; 0x05
    31d4:	00 91 17 02 	lds	r16, 0x0217	; 0x800217 <osEE_cdb_var>
    31d8:	10 91 18 02 	lds	r17, 0x0218	; 0x800218 <osEE_cdb_var+0x1>
    31dc:	82 e0       	ldi	r24, 0x02	; 2
    31de:	90 e0       	ldi	r25, 0x00	; 0
    31e0:	9b 83       	std	Y+3, r25	; 0x03
    31e2:	8a 83       	std	Y+2, r24	; 0x02
    31e4:	83 85       	ldd	r24, Z+11	; 0x0b
    31e6:	89 83       	std	Y+1, r24	; 0x01
    31e8:	c8 01       	movw	r24, r16
    31ea:	02 96       	adiw	r24, 0x02	; 2
    31ec:	0e 94 2d 18 	call	0x305a	; 0x305a <osEE_scheduler_rq_insert>
    31f0:	01 97       	sbiw	r24, 0x01	; 1
    31f2:	91 f4       	brne	.+36     	; 0x3218 <osEE_scheduler_task_unblocked+0x5a>
    31f4:	d8 01       	movw	r26, r16
    31f6:	ed 91       	ld	r30, X+
    31f8:	fc 91       	ld	r31, X
    31fa:	04 80       	ldd	r0, Z+4	; 0x04
    31fc:	f5 81       	ldd	r31, Z+5	; 0x05
    31fe:	e0 2d       	mov	r30, r0
    3200:	81 e0       	ldi	r24, 0x01	; 1
    3202:	90 e0       	ldi	r25, 0x00	; 0
    3204:	39 81       	ldd	r19, Y+1	; 0x01
    3206:	21 81       	ldd	r18, Z+1	; 0x01
    3208:	23 17       	cp	r18, r19
    320a:	08 f0       	brcs	.+2      	; 0x320e <osEE_scheduler_task_unblocked+0x50>
    320c:	80 e0       	ldi	r24, 0x00	; 0
    320e:	df 91       	pop	r29
    3210:	cf 91       	pop	r28
    3212:	1f 91       	pop	r17
    3214:	0f 91       	pop	r16
    3216:	08 95       	ret
    3218:	80 e0       	ldi	r24, 0x00	; 0
    321a:	90 e0       	ldi	r25, 0x00	; 0
    321c:	f8 cf       	rjmp	.-16     	; 0x320e <osEE_scheduler_task_unblocked+0x50>

0000321e <osEE_scheduler_task_terminated>:
    321e:	af 92       	push	r10
    3220:	bf 92       	push	r11
    3222:	cf 92       	push	r12
    3224:	df 92       	push	r13
    3226:	ef 92       	push	r14
    3228:	ff 92       	push	r15
    322a:	0f 93       	push	r16
    322c:	1f 93       	push	r17
    322e:	cf 93       	push	r28
    3230:	df 93       	push	r29
    3232:	c0 91 17 02 	lds	r28, 0x0217	; 0x800217 <osEE_cdb_var>
    3236:	d0 91 18 02 	lds	r29, 0x0218	; 0x800218 <osEE_cdb_var+0x1>
    323a:	fe 01       	movw	r30, r28
    323c:	e1 90       	ld	r14, Z+
    323e:	f1 90       	ld	r15, Z+
    3240:	6f 01       	movw	r12, r30
    3242:	f7 01       	movw	r30, r14
    3244:	04 81       	ldd	r16, Z+4	; 0x04
    3246:	15 81       	ldd	r17, Z+5	; 0x05
    3248:	fb 01       	movw	r30, r22
    324a:	f1 82       	std	Z+1, r15	; 0x01
    324c:	e0 82       	st	Z, r14
    324e:	f8 01       	movw	r30, r16
    3250:	82 81       	ldd	r24, Z+2	; 0x02
    3252:	93 81       	ldd	r25, Z+3	; 0x03
    3254:	04 97       	sbiw	r24, 0x04	; 4
    3256:	31 f5       	brne	.+76     	; 0x32a4 <osEE_scheduler_task_terminated+0x86>
    3258:	b6 01       	movw	r22, r12
    325a:	87 e1       	ldi	r24, 0x17	; 23
    325c:	92 e0       	ldi	r25, 0x02	; 2
    325e:	0e 94 34 18 	call	0x3068	; 0x3068 <osEE_scheduler_core_pop_running>
    3262:	5c 01       	movw	r10, r24
    3264:	c8 80       	ld	r12, Y
    3266:	d9 80       	ldd	r13, Y+1	; 0x01
    3268:	ec 14       	cp	r14, r12
    326a:	fd 04       	cpc	r15, r13
    326c:	b1 f0       	breq	.+44     	; 0x329a <osEE_scheduler_task_terminated+0x7c>
    326e:	c7 01       	movw	r24, r14
    3270:	0e 94 6e 18 	call	0x30dc	; 0x30dc <osEE_task_end>
    3274:	8c 81       	ldd	r24, Y+4	; 0x04
    3276:	9d 81       	ldd	r25, Y+5	; 0x05
    3278:	f5 01       	movw	r30, r10
    327a:	91 83       	std	Z+1, r25	; 0x01
    327c:	80 83       	st	Z, r24
    327e:	bd 82       	std	Y+5, r11	; 0x05
    3280:	ac 82       	std	Y+4, r10	; 0x04
    3282:	c6 01       	movw	r24, r12
    3284:	df 91       	pop	r29
    3286:	cf 91       	pop	r28
    3288:	1f 91       	pop	r17
    328a:	0f 91       	pop	r16
    328c:	ff 90       	pop	r15
    328e:	ef 90       	pop	r14
    3290:	df 90       	pop	r13
    3292:	cf 90       	pop	r12
    3294:	bf 90       	pop	r11
    3296:	af 90       	pop	r10
    3298:	08 95       	ret
    329a:	f8 01       	movw	r30, r16
    329c:	80 81       	ld	r24, Z
    329e:	81 50       	subi	r24, 0x01	; 1
    32a0:	80 83       	st	Z, r24
    32a2:	e8 cf       	rjmp	.-48     	; 0x3274 <osEE_scheduler_task_terminated+0x56>
    32a4:	6e 81       	ldd	r22, Y+6	; 0x06
    32a6:	7f 81       	ldd	r23, Y+7	; 0x07
    32a8:	fb 01       	movw	r30, r22
    32aa:	80 81       	ld	r24, Z
    32ac:	91 81       	ldd	r25, Z+1	; 0x01
    32ae:	9f 83       	std	Y+7, r25	; 0x07
    32b0:	8e 83       	std	Y+6, r24	; 0x06
    32b2:	f7 01       	movw	r30, r14
    32b4:	83 85       	ldd	r24, Z+11	; 0x0b
    32b6:	f8 01       	movw	r30, r16
    32b8:	81 83       	std	Z+1, r24	; 0x01
    32ba:	81 e0       	ldi	r24, 0x01	; 1
    32bc:	90 e0       	ldi	r25, 0x00	; 0
    32be:	93 83       	std	Z+3, r25	; 0x03
    32c0:	82 83       	std	Z+2, r24	; 0x02
    32c2:	80 81       	ld	r24, Z
    32c4:	81 30       	cpi	r24, 0x01	; 1
    32c6:	11 f4       	brne	.+4      	; 0x32cc <osEE_scheduler_task_terminated+0xae>
    32c8:	11 86       	std	Z+9, r1	; 0x09
    32ca:	10 86       	std	Z+8, r1	; 0x08
    32cc:	a7 01       	movw	r20, r14
    32ce:	c6 01       	movw	r24, r12
    32d0:	0e 94 2d 18 	call	0x305a	; 0x305a <osEE_scheduler_rq_insert>
    32d4:	b6 01       	movw	r22, r12
    32d6:	87 e1       	ldi	r24, 0x17	; 23
    32d8:	92 e0       	ldi	r25, 0x02	; 2
    32da:	0e 94 9c 17 	call	0x2f38	; 0x2f38 <osEE_scheduler_core_rq_preempt_stk>
    32de:	89 2b       	or	r24, r25
    32e0:	39 f4       	brne	.+14     	; 0x32f0 <osEE_scheduler_task_terminated+0xd2>
    32e2:	ee 81       	ldd	r30, Y+6	; 0x06
    32e4:	ff 81       	ldd	r31, Y+7	; 0x07
    32e6:	c2 80       	ldd	r12, Z+2	; 0x02
    32e8:	d3 80       	ldd	r13, Z+3	; 0x03
    32ea:	d9 82       	std	Y+1, r13	; 0x01
    32ec:	c8 82       	st	Y, r12
    32ee:	c9 cf       	rjmp	.-110    	; 0x3282 <osEE_scheduler_task_terminated+0x64>
    32f0:	c8 80       	ld	r12, Y
    32f2:	d9 80       	ldd	r13, Y+1	; 0x01
    32f4:	c6 cf       	rjmp	.-116    	; 0x3282 <osEE_scheduler_task_terminated+0x64>

000032f6 <osEE_scheduler_task_preemption_point>:
    32f6:	cf 93       	push	r28
    32f8:	df 93       	push	r29
    32fa:	c0 91 17 02 	lds	r28, 0x0217	; 0x800217 <osEE_cdb_var>
    32fe:	d0 91 18 02 	lds	r29, 0x0218	; 0x800218 <osEE_cdb_var+0x1>
    3302:	be 01       	movw	r22, r28
    3304:	6e 5f       	subi	r22, 0xFE	; 254
    3306:	7f 4f       	sbci	r23, 0xFF	; 255
    3308:	87 e1       	ldi	r24, 0x17	; 23
    330a:	92 e0       	ldi	r25, 0x02	; 2
    330c:	0e 94 9c 17 	call	0x2f38	; 0x2f38 <osEE_scheduler_core_rq_preempt_stk>
    3310:	00 97       	sbiw	r24, 0x00	; 0
    3312:	49 f0       	breq	.+18     	; 0x3326 <osEE_scheduler_task_preemption_point+0x30>
    3314:	68 81       	ld	r22, Y
    3316:	79 81       	ldd	r23, Y+1	; 0x01
    3318:	0e 94 41 1b 	call	0x3682	; 0x3682 <osEE_change_context_from_running>
    331c:	81 e0       	ldi	r24, 0x01	; 1
    331e:	90 e0       	ldi	r25, 0x00	; 0
    3320:	df 91       	pop	r29
    3322:	cf 91       	pop	r28
    3324:	08 95       	ret
    3326:	90 e0       	ldi	r25, 0x00	; 0
    3328:	80 e0       	ldi	r24, 0x00	; 0
    332a:	fa cf       	rjmp	.-12     	; 0x3320 <osEE_scheduler_task_preemption_point+0x2a>

0000332c <osEE_scheduler_task_set_running>:
    332c:	cf 93       	push	r28
    332e:	df 93       	push	r29
    3330:	e0 91 17 02 	lds	r30, 0x0217	; 0x800217 <osEE_cdb_var>
    3334:	f0 91 18 02 	lds	r31, 0x0218	; 0x800218 <osEE_cdb_var+0x1>
    3338:	80 81       	ld	r24, Z
    333a:	91 81       	ldd	r25, Z+1	; 0x01
    333c:	26 81       	ldd	r18, Z+6	; 0x06
    333e:	37 81       	ldd	r19, Z+7	; 0x07
    3340:	ec 01       	movw	r28, r24
    3342:	ac 81       	ldd	r26, Y+4	; 0x04
    3344:	bd 81       	ldd	r27, Y+5	; 0x05
    3346:	12 96       	adiw	r26, 0x02	; 2
    3348:	cd 91       	ld	r28, X+
    334a:	dc 91       	ld	r29, X
    334c:	13 97       	sbiw	r26, 0x03	; 3
    334e:	24 97       	sbiw	r28, 0x04	; 4
    3350:	31 f4       	brne	.+12     	; 0x335e <osEE_scheduler_task_set_running+0x32>
    3352:	c2 e0       	ldi	r28, 0x02	; 2
    3354:	d0 e0       	ldi	r29, 0x00	; 0
    3356:	13 96       	adiw	r26, 0x03	; 3
    3358:	dc 93       	st	X, r29
    335a:	ce 93       	st	-X, r28
    335c:	12 97       	sbiw	r26, 0x02	; 2
    335e:	71 83       	std	Z+1, r23	; 0x01
    3360:	60 83       	st	Z, r22
    3362:	41 15       	cp	r20, r1
    3364:	51 05       	cpc	r21, r1
    3366:	b9 f4       	brne	.+46     	; 0x3396 <osEE_scheduler_task_set_running+0x6a>
    3368:	a4 81       	ldd	r26, Z+4	; 0x04
    336a:	b5 81       	ldd	r27, Z+5	; 0x05
    336c:	4d 91       	ld	r20, X+
    336e:	5c 91       	ld	r21, X
    3370:	11 97       	sbiw	r26, 0x01	; 1
    3372:	55 83       	std	Z+5, r21	; 0x05
    3374:	44 83       	std	Z+4, r20	; 0x04
    3376:	11 96       	adiw	r26, 0x01	; 1
    3378:	1c 92       	st	X, r1
    337a:	1e 92       	st	-X, r1
    337c:	b7 83       	std	Z+7, r27	; 0x07
    337e:	a6 83       	std	Z+6, r26	; 0x06
    3380:	06 80       	ldd	r0, Z+6	; 0x06
    3382:	f7 81       	ldd	r31, Z+7	; 0x07
    3384:	e0 2d       	mov	r30, r0
    3386:	73 83       	std	Z+3, r23	; 0x03
    3388:	62 83       	std	Z+2, r22	; 0x02
    338a:	31 83       	std	Z+1, r19	; 0x01
    338c:	20 83       	st	Z, r18
    338e:	df 91       	pop	r29
    3390:	cf 91       	pop	r28
    3392:	0c 94 41 1b 	jmp	0x3682	; 0x3682 <osEE_change_context_from_running>
    3396:	57 83       	std	Z+7, r21	; 0x07
    3398:	46 83       	std	Z+6, r20	; 0x06
    339a:	f2 cf       	rjmp	.-28     	; 0x3380 <osEE_scheduler_task_set_running+0x54>

0000339c <osEE_counter_insert_abs_trigger>:
    339c:	af 92       	push	r10
    339e:	bf 92       	push	r11
    33a0:	cf 92       	push	r12
    33a2:	df 92       	push	r13
    33a4:	ef 92       	push	r14
    33a6:	ff 92       	push	r15
    33a8:	0f 93       	push	r16
    33aa:	1f 93       	push	r17
    33ac:	cf 93       	push	r28
    33ae:	df 93       	push	r29
    33b0:	dc 01       	movw	r26, r24
    33b2:	ad 90       	ld	r10, X+
    33b4:	bc 90       	ld	r11, X
    33b6:	e5 01       	movw	r28, r10
    33b8:	e8 81       	ld	r30, Y
    33ba:	f9 81       	ldd	r31, Y+1	; 0x01
    33bc:	2a 81       	ldd	r18, Y+2	; 0x02
    33be:	3b 81       	ldd	r19, Y+3	; 0x03
    33c0:	db 01       	movw	r26, r22
    33c2:	cd 90       	ld	r12, X+
    33c4:	dc 90       	ld	r13, X
    33c6:	e6 01       	movw	r28, r12
    33c8:	5b 83       	std	Y+3, r21	; 0x03
    33ca:	4a 83       	std	Y+2, r20	; 0x02
    33cc:	81 e0       	ldi	r24, 0x01	; 1
    33ce:	90 e0       	ldi	r25, 0x00	; 0
    33d0:	b0 e0       	ldi	r27, 0x00	; 0
    33d2:	a0 e0       	ldi	r26, 0x00	; 0
    33d4:	30 97       	sbiw	r30, 0x00	; 0
    33d6:	11 f0       	breq	.+4      	; 0x33dc <osEE_counter_insert_abs_trigger+0x40>
    33d8:	00 97       	sbiw	r24, 0x00	; 0
    33da:	a9 f4       	brne	.+42     	; 0x3406 <osEE_counter_insert_abs_trigger+0x6a>
    33dc:	10 97       	sbiw	r26, 0x00	; 0
    33de:	79 f1       	breq	.+94     	; 0x343e <osEE_counter_insert_abs_trigger+0xa2>
    33e0:	0d 90       	ld	r0, X+
    33e2:	bc 91       	ld	r27, X
    33e4:	a0 2d       	mov	r26, r0
    33e6:	6d 93       	st	X+, r22
    33e8:	7c 93       	st	X, r23
    33ea:	e6 01       	movw	r28, r12
    33ec:	f9 83       	std	Y+1, r31	; 0x01
    33ee:	e8 83       	st	Y, r30
    33f0:	df 91       	pop	r29
    33f2:	cf 91       	pop	r28
    33f4:	1f 91       	pop	r17
    33f6:	0f 91       	pop	r16
    33f8:	ff 90       	pop	r15
    33fa:	ef 90       	pop	r14
    33fc:	df 90       	pop	r13
    33fe:	cf 90       	pop	r12
    3400:	bf 90       	pop	r11
    3402:	af 90       	pop	r10
    3404:	08 95       	ret
    3406:	00 81       	ld	r16, Z
    3408:	11 81       	ldd	r17, Z+1	; 0x01
    340a:	e8 01       	movw	r28, r16
    340c:	ea 80       	ldd	r14, Y+2	; 0x02
    340e:	fb 80       	ldd	r15, Y+3	; 0x03
    3410:	2e 15       	cp	r18, r14
    3412:	3f 05       	cpc	r19, r15
    3414:	58 f4       	brcc	.+22     	; 0x342c <osEE_counter_insert_abs_trigger+0x90>
    3416:	4e 15       	cp	r20, r14
    3418:	5f 05       	cpc	r21, r15
    341a:	18 f4       	brcc	.+6      	; 0x3422 <osEE_counter_insert_abs_trigger+0x86>
    341c:	24 17       	cp	r18, r20
    341e:	35 07       	cpc	r19, r21
    3420:	58 f0       	brcs	.+22     	; 0x3438 <osEE_counter_insert_abs_trigger+0x9c>
    3422:	df 01       	movw	r26, r30
    3424:	e8 01       	movw	r28, r16
    3426:	e8 81       	ld	r30, Y
    3428:	f9 81       	ldd	r31, Y+1	; 0x01
    342a:	d4 cf       	rjmp	.-88     	; 0x33d4 <osEE_counter_insert_abs_trigger+0x38>
    342c:	24 17       	cp	r18, r20
    342e:	35 07       	cpc	r19, r21
    3430:	18 f0       	brcs	.+6      	; 0x3438 <osEE_counter_insert_abs_trigger+0x9c>
    3432:	4e 15       	cp	r20, r14
    3434:	5f 05       	cpc	r21, r15
    3436:	a8 f7       	brcc	.-22     	; 0x3422 <osEE_counter_insert_abs_trigger+0x86>
    3438:	90 e0       	ldi	r25, 0x00	; 0
    343a:	80 e0       	ldi	r24, 0x00	; 0
    343c:	cb cf       	rjmp	.-106    	; 0x33d4 <osEE_counter_insert_abs_trigger+0x38>
    343e:	d5 01       	movw	r26, r10
    3440:	d2 cf       	rjmp	.-92     	; 0x33e6 <osEE_counter_insert_abs_trigger+0x4a>

00003442 <osEE_counter_insert_rel_trigger>:
    3442:	cf 93       	push	r28
    3444:	df 93       	push	r29
    3446:	dc 01       	movw	r26, r24
    3448:	12 96       	adiw	r26, 0x02	; 2
    344a:	ed 91       	ld	r30, X+
    344c:	fc 91       	ld	r31, X
    344e:	13 97       	sbiw	r26, 0x03	; 3
    3450:	0d 90       	ld	r0, X+
    3452:	bc 91       	ld	r27, X
    3454:	a0 2d       	mov	r26, r0
    3456:	12 96       	adiw	r26, 0x02	; 2
    3458:	2d 91       	ld	r18, X+
    345a:	3c 91       	ld	r19, X
    345c:	df 01       	movw	r26, r30
    345e:	a4 1b       	sub	r26, r20
    3460:	b5 0b       	sbc	r27, r21
    3462:	a2 17       	cp	r26, r18
    3464:	b3 07       	cpc	r27, r19
    3466:	30 f0       	brcs	.+12     	; 0x3474 <osEE_counter_insert_rel_trigger+0x32>
    3468:	42 0f       	add	r20, r18
    346a:	53 1f       	adc	r21, r19
    346c:	df 91       	pop	r29
    346e:	cf 91       	pop	r28
    3470:	0c 94 ce 19 	jmp	0x339c	; 0x339c <osEE_counter_insert_abs_trigger>
    3474:	41 50       	subi	r20, 0x01	; 1
    3476:	51 09       	sbc	r21, r1
    3478:	42 0f       	add	r20, r18
    347a:	53 1f       	adc	r21, r19
    347c:	4e 1b       	sub	r20, r30
    347e:	5f 0b       	sbc	r21, r31
    3480:	f5 cf       	rjmp	.-22     	; 0x346c <osEE_counter_insert_rel_trigger+0x2a>

00003482 <osEE_counter_increment>:
    3482:	8f 92       	push	r8
    3484:	9f 92       	push	r9
    3486:	af 92       	push	r10
    3488:	bf 92       	push	r11
    348a:	cf 92       	push	r12
    348c:	df 92       	push	r13
    348e:	ef 92       	push	r14
    3490:	ff 92       	push	r15
    3492:	0f 93       	push	r16
    3494:	1f 93       	push	r17
    3496:	cf 93       	push	r28
    3498:	df 93       	push	r29
    349a:	00 d0       	rcall	.+0      	; 0x349c <osEE_counter_increment+0x1a>
    349c:	cd b7       	in	r28, 0x3d	; 61
    349e:	de b7       	in	r29, 0x3e	; 62
    34a0:	dc 01       	movw	r26, r24
    34a2:	cd 90       	ld	r12, X+
    34a4:	dc 90       	ld	r13, X
    34a6:	11 97       	sbiw	r26, 0x01	; 1
    34a8:	f6 01       	movw	r30, r12
    34aa:	22 81       	ldd	r18, Z+2	; 0x02
    34ac:	33 81       	ldd	r19, Z+3	; 0x03
    34ae:	12 96       	adiw	r26, 0x02	; 2
    34b0:	4d 91       	ld	r20, X+
    34b2:	5c 91       	ld	r21, X
    34b4:	24 17       	cp	r18, r20
    34b6:	35 07       	cpc	r19, r21
    34b8:	08 f4       	brcc	.+2      	; 0x34bc <osEE_counter_increment+0x3a>
    34ba:	71 c0       	rjmp	.+226    	; 0x359e <osEE_counter_increment+0x11c>
    34bc:	13 82       	std	Z+3, r1	; 0x03
    34be:	12 82       	std	Z+2, r1	; 0x02
    34c0:	30 e0       	ldi	r19, 0x00	; 0
    34c2:	20 e0       	ldi	r18, 0x00	; 0
    34c4:	f6 01       	movw	r30, r12
    34c6:	00 81       	ld	r16, Z
    34c8:	11 81       	ldd	r17, Z+1	; 0x01
    34ca:	01 15       	cp	r16, r1
    34cc:	11 05       	cpc	r17, r1
    34ce:	09 f4       	brne	.+2      	; 0x34d2 <osEE_counter_increment+0x50>
    34d0:	57 c0       	rjmp	.+174    	; 0x3580 <osEE_counter_increment+0xfe>
    34d2:	d8 01       	movw	r26, r16
    34d4:	ed 91       	ld	r30, X+
    34d6:	fc 91       	ld	r31, X
    34d8:	11 97       	sbiw	r26, 0x01	; 1
    34da:	42 81       	ldd	r20, Z+2	; 0x02
    34dc:	53 81       	ldd	r21, Z+3	; 0x03
    34de:	42 17       	cp	r20, r18
    34e0:	53 07       	cpc	r21, r19
    34e2:	09 f0       	breq	.+2      	; 0x34e6 <osEE_counter_increment+0x64>
    34e4:	4d c0       	rjmp	.+154    	; 0x3580 <osEE_counter_increment+0xfe>
    34e6:	23 e0       	ldi	r18, 0x03	; 3
    34e8:	e2 2e       	mov	r14, r18
    34ea:	f1 2c       	mov	r15, r1
    34ec:	2d 91       	ld	r18, X+
    34ee:	3c 91       	ld	r19, X
    34f0:	f9 01       	movw	r30, r18
    34f2:	f5 82       	std	Z+5, r15	; 0x05
    34f4:	e4 82       	std	Z+4, r14	; 0x04
    34f6:	a0 81       	ld	r26, Z
    34f8:	b1 81       	ldd	r27, Z+1	; 0x01
    34fa:	10 97       	sbiw	r26, 0x00	; 0
    34fc:	49 f0       	breq	.+18     	; 0x3510 <osEE_counter_increment+0x8e>
    34fe:	6d 91       	ld	r22, X+
    3500:	7c 91       	ld	r23, X
    3502:	11 97       	sbiw	r26, 0x01	; 1
    3504:	fb 01       	movw	r30, r22
    3506:	62 81       	ldd	r22, Z+2	; 0x02
    3508:	73 81       	ldd	r23, Z+3	; 0x03
    350a:	46 17       	cp	r20, r22
    350c:	57 07       	cpc	r21, r23
    350e:	71 f3       	breq	.-36     	; 0x34ec <osEE_counter_increment+0x6a>
    3510:	7c 01       	movw	r14, r24
    3512:	f9 01       	movw	r30, r18
    3514:	11 82       	std	Z+1, r1	; 0x01
    3516:	10 82       	st	Z, r1
    3518:	f6 01       	movw	r30, r12
    351a:	b1 83       	std	Z+1, r27	; 0x01
    351c:	a0 83       	st	Z, r26
    351e:	82 e0       	ldi	r24, 0x02	; 2
    3520:	c8 2e       	mov	r12, r24
    3522:	d1 2c       	mov	r13, r1
    3524:	d8 01       	movw	r26, r16
    3526:	ed 91       	ld	r30, X+
    3528:	fc 91       	ld	r31, X
    352a:	11 97       	sbiw	r26, 0x01	; 1
    352c:	a0 80       	ld	r10, Z
    352e:	b1 80       	ldd	r11, Z+1	; 0x01
    3530:	1a 82       	std	Y+2, r1	; 0x02
    3532:	19 82       	std	Y+1, r1	; 0x01
    3534:	1c 96       	adiw	r26, 0x0c	; 12
    3536:	8d 91       	ld	r24, X+
    3538:	9c 91       	ld	r25, X
    353a:	1d 97       	sbiw	r26, 0x0d	; 13
    353c:	81 30       	cpi	r24, 0x01	; 1
    353e:	91 05       	cpc	r25, r1
    3540:	09 f4       	brne	.+2      	; 0x3544 <osEE_counter_increment+0xc2>
    3542:	42 c0       	rjmp	.+132    	; 0x35c8 <osEE_counter_increment+0x146>
    3544:	88 f1       	brcs	.+98     	; 0x35a8 <osEE_counter_increment+0x126>
    3546:	82 30       	cpi	r24, 0x02	; 2
    3548:	91 05       	cpc	r25, r1
    354a:	09 f4       	brne	.+2      	; 0x354e <osEE_counter_increment+0xcc>
    354c:	52 c0       	rjmp	.+164    	; 0x35f2 <osEE_counter_increment+0x170>
    354e:	03 97       	sbiw	r24, 0x03	; 3
    3550:	09 f4       	brne	.+2      	; 0x3554 <osEE_counter_increment+0xd2>
    3552:	55 c0       	rjmp	.+170    	; 0x35fe <osEE_counter_increment+0x17c>
    3554:	d8 01       	movw	r26, r16
    3556:	ed 91       	ld	r30, X+
    3558:	fc 91       	ld	r31, X
    355a:	84 81       	ldd	r24, Z+4	; 0x04
    355c:	95 81       	ldd	r25, Z+5	; 0x05
    355e:	03 97       	sbiw	r24, 0x03	; 3
    3560:	61 f4       	brne	.+24     	; 0x357a <osEE_counter_increment+0xf8>
    3562:	46 81       	ldd	r20, Z+6	; 0x06
    3564:	57 81       	ldd	r21, Z+7	; 0x07
    3566:	41 15       	cp	r20, r1
    3568:	51 05       	cpc	r21, r1
    356a:	09 f4       	brne	.+2      	; 0x356e <osEE_counter_increment+0xec>
    356c:	4d c0       	rjmp	.+154    	; 0x3608 <osEE_counter_increment+0x186>
    356e:	d5 82       	std	Z+5, r13	; 0x05
    3570:	c4 82       	std	Z+4, r12	; 0x04
    3572:	b8 01       	movw	r22, r16
    3574:	c7 01       	movw	r24, r14
    3576:	0e 94 21 1a 	call	0x3442	; 0x3442 <osEE_counter_insert_rel_trigger>
    357a:	85 01       	movw	r16, r10
    357c:	ab 28       	or	r10, r11
    357e:	91 f6       	brne	.-92     	; 0x3524 <osEE_counter_increment+0xa2>
    3580:	0f 90       	pop	r0
    3582:	0f 90       	pop	r0
    3584:	df 91       	pop	r29
    3586:	cf 91       	pop	r28
    3588:	1f 91       	pop	r17
    358a:	0f 91       	pop	r16
    358c:	ff 90       	pop	r15
    358e:	ef 90       	pop	r14
    3590:	df 90       	pop	r13
    3592:	cf 90       	pop	r12
    3594:	bf 90       	pop	r11
    3596:	af 90       	pop	r10
    3598:	9f 90       	pop	r9
    359a:	8f 90       	pop	r8
    359c:	08 95       	ret
    359e:	2f 5f       	subi	r18, 0xFF	; 255
    35a0:	3f 4f       	sbci	r19, 0xFF	; 255
    35a2:	33 83       	std	Z+3, r19	; 0x03
    35a4:	22 83       	std	Z+2, r18	; 0x02
    35a6:	8e cf       	rjmp	.-228    	; 0x34c4 <osEE_counter_increment+0x42>
    35a8:	f8 01       	movw	r30, r16
    35aa:	86 80       	ldd	r8, Z+6	; 0x06
    35ac:	97 80       	ldd	r9, Z+7	; 0x07
    35ae:	c4 01       	movw	r24, r8
    35b0:	0e 94 5c 18 	call	0x30b8	; 0x30b8 <osEE_task_activated>
    35b4:	9a 83       	std	Y+2, r25	; 0x02
    35b6:	89 83       	std	Y+1, r24	; 0x01
    35b8:	89 2b       	or	r24, r25
    35ba:	61 f6       	brne	.-104    	; 0x3554 <osEE_counter_increment+0xd2>
    35bc:	b4 01       	movw	r22, r8
    35be:	85 e0       	ldi	r24, 0x05	; 5
    35c0:	92 e0       	ldi	r25, 0x02	; 2
    35c2:	0e 94 b8 18 	call	0x3170	; 0x3170 <osEE_scheduler_task_insert>
    35c6:	c6 cf       	rjmp	.-116    	; 0x3554 <osEE_counter_increment+0xd2>
    35c8:	1a 96       	adiw	r26, 0x0a	; 10
    35ca:	6d 91       	ld	r22, X+
    35cc:	7c 91       	ld	r23, X
    35ce:	1b 97       	sbiw	r26, 0x0b	; 11
    35d0:	ae 01       	movw	r20, r28
    35d2:	4f 5f       	subi	r20, 0xFF	; 255
    35d4:	5f 4f       	sbci	r21, 0xFF	; 255
    35d6:	16 96       	adiw	r26, 0x06	; 6
    35d8:	8d 91       	ld	r24, X+
    35da:	9c 91       	ld	r25, X
    35dc:	0e 94 83 18 	call	0x3106	; 0x3106 <osEE_task_event_set_mask>
    35e0:	00 97       	sbiw	r24, 0x00	; 0
    35e2:	09 f4       	brne	.+2      	; 0x35e6 <osEE_counter_increment+0x164>
    35e4:	b7 cf       	rjmp	.-146    	; 0x3554 <osEE_counter_increment+0xd2>
    35e6:	bc 01       	movw	r22, r24
    35e8:	85 e0       	ldi	r24, 0x05	; 5
    35ea:	92 e0       	ldi	r25, 0x02	; 2
    35ec:	0e 94 df 18 	call	0x31be	; 0x31be <osEE_scheduler_task_unblocked>
    35f0:	b1 cf       	rjmp	.-158    	; 0x3554 <osEE_counter_increment+0xd2>
    35f2:	f8 01       	movw	r30, r16
    35f4:	80 85       	ldd	r24, Z+8	; 0x08
    35f6:	91 85       	ldd	r25, Z+9	; 0x09
    35f8:	0e 94 41 1a 	call	0x3482	; 0x3482 <osEE_counter_increment>
    35fc:	ab cf       	rjmp	.-170    	; 0x3554 <osEE_counter_increment+0xd2>
    35fe:	14 96       	adiw	r26, 0x04	; 4
    3600:	ed 91       	ld	r30, X+
    3602:	fc 91       	ld	r31, X
    3604:	09 95       	icall
    3606:	a6 cf       	rjmp	.-180    	; 0x3554 <osEE_counter_increment+0xd2>
    3608:	15 82       	std	Z+5, r1	; 0x05
    360a:	14 82       	std	Z+4, r1	; 0x04
    360c:	b6 cf       	rjmp	.-148    	; 0x357a <osEE_counter_increment+0xf8>

0000360e <osEE_alarm_set_rel>:
    360e:	cf 93       	push	r28
    3610:	df 93       	push	r29
    3612:	db 01       	movw	r26, r22
    3614:	ed 91       	ld	r30, X+
    3616:	fc 91       	ld	r31, X
    3618:	a4 81       	ldd	r26, Z+4	; 0x04
    361a:	b5 81       	ldd	r27, Z+5	; 0x05
    361c:	a2 30       	cpi	r26, 0x02	; 2
    361e:	b1 05       	cpc	r27, r1
    3620:	68 f5       	brcc	.+90     	; 0x367c <osEE_alarm_set_rel+0x6e>
    3622:	37 83       	std	Z+7, r19	; 0x07
    3624:	26 83       	std	Z+6, r18	; 0x06
    3626:	11 97       	sbiw	r26, 0x01	; 1
    3628:	11 f5       	brne	.+68     	; 0x366e <osEE_alarm_set_rel+0x60>
    362a:	ec 01       	movw	r28, r24
    362c:	2a 81       	ldd	r18, Y+2	; 0x02
    362e:	3b 81       	ldd	r19, Y+3	; 0x03
    3630:	a8 81       	ld	r26, Y
    3632:	b9 81       	ldd	r27, Y+1	; 0x01
    3634:	12 96       	adiw	r26, 0x02	; 2
    3636:	8d 91       	ld	r24, X+
    3638:	9c 91       	ld	r25, X
    363a:	b9 01       	movw	r22, r18
    363c:	64 1b       	sub	r22, r20
    363e:	75 0b       	sbc	r23, r21
    3640:	68 17       	cp	r22, r24
    3642:	79 07       	cpc	r23, r25
    3644:	68 f0       	brcs	.+26     	; 0x3660 <osEE_alarm_set_rel+0x52>
    3646:	48 0f       	add	r20, r24
    3648:	59 1f       	adc	r21, r25
    364a:	53 83       	std	Z+3, r21	; 0x03
    364c:	42 83       	std	Z+2, r20	; 0x02
    364e:	84 e0       	ldi	r24, 0x04	; 4
    3650:	90 e0       	ldi	r25, 0x00	; 0
    3652:	95 83       	std	Z+5, r25	; 0x05
    3654:	84 83       	std	Z+4, r24	; 0x04
    3656:	90 e0       	ldi	r25, 0x00	; 0
    3658:	80 e0       	ldi	r24, 0x00	; 0
    365a:	df 91       	pop	r29
    365c:	cf 91       	pop	r28
    365e:	08 95       	ret
    3660:	41 50       	subi	r20, 0x01	; 1
    3662:	51 09       	sbc	r21, r1
    3664:	48 0f       	add	r20, r24
    3666:	59 1f       	adc	r21, r25
    3668:	42 1b       	sub	r20, r18
    366a:	53 0b       	sbc	r21, r19
    366c:	ee cf       	rjmp	.-36     	; 0x364a <osEE_alarm_set_rel+0x3c>
    366e:	22 e0       	ldi	r18, 0x02	; 2
    3670:	30 e0       	ldi	r19, 0x00	; 0
    3672:	35 83       	std	Z+5, r19	; 0x05
    3674:	24 83       	std	Z+4, r18	; 0x04
    3676:	0e 94 21 1a 	call	0x3442	; 0x3442 <osEE_counter_insert_rel_trigger>
    367a:	ed cf       	rjmp	.-38     	; 0x3656 <osEE_alarm_set_rel+0x48>
    367c:	87 e0       	ldi	r24, 0x07	; 7
    367e:	90 e0       	ldi	r25, 0x00	; 0
    3680:	ec cf       	rjmp	.-40     	; 0x365a <osEE_alarm_set_rel+0x4c>

00003682 <osEE_change_context_from_running>:
    3682:	fb 01       	movw	r30, r22
    3684:	dc 01       	movw	r26, r24
    3686:	12 96       	adiw	r26, 0x02	; 2
    3688:	4d 91       	ld	r20, X+
    368a:	5c 91       	ld	r21, X
    368c:	62 81       	ldd	r22, Z+2	; 0x02
    368e:	73 81       	ldd	r23, Z+3	; 0x03
    3690:	a4 81       	ldd	r26, Z+4	; 0x04
    3692:	b5 81       	ldd	r27, Z+5	; 0x05
    3694:	12 96       	adiw	r26, 0x02	; 2
    3696:	8d 91       	ld	r24, X+
    3698:	9c 91       	ld	r25, X
    369a:	02 97       	sbiw	r24, 0x02	; 2
    369c:	19 f4       	brne	.+6      	; 0x36a4 <osEE_change_context_from_running+0x22>
    369e:	cf 01       	movw	r24, r30
    36a0:	0c 94 8a 00 	jmp	0x114	; 0x114 <osEE_hal_save_ctx_and_restore_ctx>
    36a4:	cf 01       	movw	r24, r30
    36a6:	0c 94 d2 00 	jmp	0x1a4	; 0x1a4 <osEE_hal_save_ctx_and_ready2stacked>

000036aa <osEE_change_context_from_task_end>:
    36aa:	cb 01       	movw	r24, r22
    36ac:	db 01       	movw	r26, r22
    36ae:	12 96       	adiw	r26, 0x02	; 2
    36b0:	6d 91       	ld	r22, X+
    36b2:	7c 91       	ld	r23, X
    36b4:	13 97       	sbiw	r26, 0x03	; 3
    36b6:	14 96       	adiw	r26, 0x04	; 4
    36b8:	ed 91       	ld	r30, X+
    36ba:	fc 91       	ld	r31, X
    36bc:	22 81       	ldd	r18, Z+2	; 0x02
    36be:	33 81       	ldd	r19, Z+3	; 0x03
    36c0:	22 30       	cpi	r18, 0x02	; 2
    36c2:	31 05       	cpc	r19, r1
    36c4:	11 f4       	brne	.+4      	; 0x36ca <osEE_change_context_from_task_end+0x20>
    36c6:	0c 94 aa 00 	jmp	0x154	; 0x154 <osEE_hal_restore_ctx>
    36ca:	0c 94 ca 00 	jmp	0x194	; 0x194 <osEE_hal_ready2stacked>

000036ce <osEE_idle_task_terminate>:
    36ce:	dc 01       	movw	r26, r24
    36d0:	12 96       	adiw	r26, 0x02	; 2
    36d2:	6d 91       	ld	r22, X+
    36d4:	7c 91       	ld	r23, X
    36d6:	13 97       	sbiw	r26, 0x03	; 3
    36d8:	ed 91       	ld	r30, X+
    36da:	fc 91       	ld	r31, X
    36dc:	40 81       	ld	r20, Z
    36de:	51 81       	ldd	r21, Z+1	; 0x01
    36e0:	db 01       	movw	r26, r22
    36e2:	ed 91       	ld	r30, X+
    36e4:	fc 91       	ld	r31, X
    36e6:	22 89       	ldd	r18, Z+18	; 0x12
    36e8:	33 89       	ldd	r19, Z+19	; 0x13
    36ea:	21 15       	cp	r18, r1
    36ec:	31 05       	cpc	r19, r1
    36ee:	19 f0       	breq	.+6      	; 0x36f6 <osEE_idle_task_terminate+0x28>
    36f0:	42 17       	cp	r20, r18
    36f2:	53 07       	cpc	r21, r19
    36f4:	29 f4       	brne	.+10     	; 0x3700 <osEE_idle_task_terminate+0x32>
    36f6:	db 01       	movw	r26, r22
    36f8:	ed 93       	st	X+, r30
    36fa:	fc 93       	st	X, r31
    36fc:	0c 94 aa 00 	jmp	0x154	; 0x154 <osEE_hal_restore_ctx>
    3700:	f9 01       	movw	r30, r18
    3702:	f1 cf       	rjmp	.-30     	; 0x36e6 <osEE_idle_task_terminate+0x18>

00003704 <osEE_scheduler_task_end>:
    3704:	cf 93       	push	r28
    3706:	df 93       	push	r29
    3708:	00 d0       	rcall	.+0      	; 0x370a <osEE_scheduler_task_end+0x6>
    370a:	cd b7       	in	r28, 0x3d	; 61
    370c:	de b7       	in	r29, 0x3e	; 62
    370e:	be 01       	movw	r22, r28
    3710:	6f 5f       	subi	r22, 0xFF	; 255
    3712:	7f 4f       	sbci	r23, 0xFF	; 255
    3714:	85 e0       	ldi	r24, 0x05	; 5
    3716:	92 e0       	ldi	r25, 0x02	; 2
    3718:	0e 94 0f 19 	call	0x321e	; 0x321e <osEE_scheduler_task_terminated>
    371c:	bc 01       	movw	r22, r24
    371e:	89 81       	ldd	r24, Y+1	; 0x01
    3720:	9a 81       	ldd	r25, Y+2	; 0x02
    3722:	0e 94 55 1b 	call	0x36aa	; 0x36aa <osEE_change_context_from_task_end>
    3726:	0f 90       	pop	r0
    3728:	0f 90       	pop	r0
    372a:	df 91       	pop	r29
    372c:	cf 91       	pop	r28
    372e:	08 95       	ret

00003730 <__vector_default>:
    3730:	f8 94       	cli
    3732:	ff cf       	rjmp	.-2      	; 0x3732 <__vector_default+0x2>

00003734 <osEE_atmega_intvect>:
    3734:	e0 e3       	ldi	r30, 0x30	; 48
    3736:	08 95       	ret

00003738 <__vector_11>:
    3738:	8f 93       	push	r24
    373a:	9f 93       	push	r25
    373c:	80 e0       	ldi	r24, 0x00	; 0
    373e:	0e 94 a4 1b 	call	0x3748	; 0x3748 <osEE_avr8_isr2_stub>
    3742:	9f 91       	pop	r25
    3744:	8f 91       	pop	r24
    3746:	18 95       	reti

00003748 <osEE_avr8_isr2_stub>:
    3748:	1f 92       	push	r1
    374a:	0f 92       	push	r0
    374c:	0f b6       	in	r0, 0x3f	; 63
    374e:	0f 92       	push	r0
    3750:	11 24       	eor	r1, r1
    3752:	2f 93       	push	r18
    3754:	3f 93       	push	r19
    3756:	4f 93       	push	r20
    3758:	5f 93       	push	r21
    375a:	6f 93       	push	r22
    375c:	7f 93       	push	r23
    375e:	af 93       	push	r26
    3760:	bf 93       	push	r27
    3762:	ef 93       	push	r30
    3764:	ff 93       	push	r31
    3766:	0e 94 a0 18 	call	0x3140	; 0x3140 <osEE_activate_isr2>
    376a:	ff 91       	pop	r31
    376c:	ef 91       	pop	r30
    376e:	bf 91       	pop	r27
    3770:	af 91       	pop	r26
    3772:	7f 91       	pop	r23
    3774:	6f 91       	pop	r22
    3776:	5f 91       	pop	r21
    3778:	4f 91       	pop	r20
    377a:	3f 91       	pop	r19
    377c:	2f 91       	pop	r18
    377e:	0f 90       	pop	r0
    3780:	0f be       	out	0x3f, r0	; 63
    3782:	0f 90       	pop	r0
    3784:	1f 90       	pop	r1
    3786:	08 95       	ret

00003788 <__mulsi3>:
    3788:	db 01       	movw	r26, r22
    378a:	8f 93       	push	r24
    378c:	9f 93       	push	r25
    378e:	0e 94 0c 1c 	call	0x3818	; 0x3818 <__muluhisi3>
    3792:	bf 91       	pop	r27
    3794:	af 91       	pop	r26
    3796:	a2 9f       	mul	r26, r18
    3798:	80 0d       	add	r24, r0
    379a:	91 1d       	adc	r25, r1
    379c:	a3 9f       	mul	r26, r19
    379e:	90 0d       	add	r25, r0
    37a0:	b2 9f       	mul	r27, r18
    37a2:	90 0d       	add	r25, r0
    37a4:	11 24       	eor	r1, r1
    37a6:	08 95       	ret

000037a8 <__udivmodsi4>:
    37a8:	a1 e2       	ldi	r26, 0x21	; 33
    37aa:	1a 2e       	mov	r1, r26
    37ac:	aa 1b       	sub	r26, r26
    37ae:	bb 1b       	sub	r27, r27
    37b0:	fd 01       	movw	r30, r26
    37b2:	0d c0       	rjmp	.+26     	; 0x37ce <__udivmodsi4_ep>

000037b4 <__udivmodsi4_loop>:
    37b4:	aa 1f       	adc	r26, r26
    37b6:	bb 1f       	adc	r27, r27
    37b8:	ee 1f       	adc	r30, r30
    37ba:	ff 1f       	adc	r31, r31
    37bc:	a2 17       	cp	r26, r18
    37be:	b3 07       	cpc	r27, r19
    37c0:	e4 07       	cpc	r30, r20
    37c2:	f5 07       	cpc	r31, r21
    37c4:	20 f0       	brcs	.+8      	; 0x37ce <__udivmodsi4_ep>
    37c6:	a2 1b       	sub	r26, r18
    37c8:	b3 0b       	sbc	r27, r19
    37ca:	e4 0b       	sbc	r30, r20
    37cc:	f5 0b       	sbc	r31, r21

000037ce <__udivmodsi4_ep>:
    37ce:	66 1f       	adc	r22, r22
    37d0:	77 1f       	adc	r23, r23
    37d2:	88 1f       	adc	r24, r24
    37d4:	99 1f       	adc	r25, r25
    37d6:	1a 94       	dec	r1
    37d8:	69 f7       	brne	.-38     	; 0x37b4 <__udivmodsi4_loop>
    37da:	60 95       	com	r22
    37dc:	70 95       	com	r23
    37de:	80 95       	com	r24
    37e0:	90 95       	com	r25
    37e2:	9b 01       	movw	r18, r22
    37e4:	ac 01       	movw	r20, r24
    37e6:	bd 01       	movw	r22, r26
    37e8:	cf 01       	movw	r24, r30
    37ea:	08 95       	ret

000037ec <__umulhisi3>:
    37ec:	a2 9f       	mul	r26, r18
    37ee:	b0 01       	movw	r22, r0
    37f0:	b3 9f       	mul	r27, r19
    37f2:	c0 01       	movw	r24, r0
    37f4:	a3 9f       	mul	r26, r19
    37f6:	70 0d       	add	r23, r0
    37f8:	81 1d       	adc	r24, r1
    37fa:	11 24       	eor	r1, r1
    37fc:	91 1d       	adc	r25, r1
    37fe:	b2 9f       	mul	r27, r18
    3800:	70 0d       	add	r23, r0
    3802:	81 1d       	adc	r24, r1
    3804:	11 24       	eor	r1, r1
    3806:	91 1d       	adc	r25, r1
    3808:	08 95       	ret

0000380a <__usmulhisi3>:
    380a:	0e 94 f6 1b 	call	0x37ec	; 0x37ec <__umulhisi3>

0000380e <__usmulhisi3_tail>:
    380e:	b7 ff       	sbrs	r27, 7
    3810:	08 95       	ret
    3812:	82 1b       	sub	r24, r18
    3814:	93 0b       	sbc	r25, r19
    3816:	08 95       	ret

00003818 <__muluhisi3>:
    3818:	0e 94 f6 1b 	call	0x37ec	; 0x37ec <__umulhisi3>
    381c:	a5 9f       	mul	r26, r21
    381e:	90 0d       	add	r25, r0
    3820:	b4 9f       	mul	r27, r20
    3822:	90 0d       	add	r25, r0
    3824:	a4 9f       	mul	r26, r20
    3826:	80 0d       	add	r24, r0
    3828:	91 1d       	adc	r25, r1
    382a:	11 24       	eor	r1, r1
    382c:	08 95       	ret

0000382e <__muldi3>:
    382e:	df 93       	push	r29
    3830:	cf 93       	push	r28
    3832:	1f 93       	push	r17
    3834:	0f 93       	push	r16
    3836:	9a 9d       	mul	r25, r10
    3838:	f0 2d       	mov	r31, r0
    383a:	21 9f       	mul	r18, r17
    383c:	f0 0d       	add	r31, r0
    383e:	8b 9d       	mul	r24, r11
    3840:	f0 0d       	add	r31, r0
    3842:	8a 9d       	mul	r24, r10
    3844:	e0 2d       	mov	r30, r0
    3846:	f1 0d       	add	r31, r1
    3848:	03 9f       	mul	r16, r19
    384a:	f0 0d       	add	r31, r0
    384c:	02 9f       	mul	r16, r18
    384e:	e0 0d       	add	r30, r0
    3850:	f1 1d       	adc	r31, r1
    3852:	4e 9d       	mul	r20, r14
    3854:	e0 0d       	add	r30, r0
    3856:	f1 1d       	adc	r31, r1
    3858:	5e 9d       	mul	r21, r14
    385a:	f0 0d       	add	r31, r0
    385c:	4f 9d       	mul	r20, r15
    385e:	f0 0d       	add	r31, r0
    3860:	7f 93       	push	r23
    3862:	6f 93       	push	r22
    3864:	bf 92       	push	r11
    3866:	af 92       	push	r10
    3868:	5f 93       	push	r21
    386a:	4f 93       	push	r20
    386c:	d5 01       	movw	r26, r10
    386e:	0e 94 f6 1b 	call	0x37ec	; 0x37ec <__umulhisi3>
    3872:	8b 01       	movw	r16, r22
    3874:	ac 01       	movw	r20, r24
    3876:	d7 01       	movw	r26, r14
    3878:	0e 94 f6 1b 	call	0x37ec	; 0x37ec <__umulhisi3>
    387c:	eb 01       	movw	r28, r22
    387e:	e8 0f       	add	r30, r24
    3880:	f9 1f       	adc	r31, r25
    3882:	d6 01       	movw	r26, r12
    3884:	0e 94 66 1c 	call	0x38cc	; 0x38cc <__muldi3_6>
    3888:	2f 91       	pop	r18
    388a:	3f 91       	pop	r19
    388c:	d6 01       	movw	r26, r12
    388e:	0e 94 f6 1b 	call	0x37ec	; 0x37ec <__umulhisi3>
    3892:	c6 0f       	add	r28, r22
    3894:	d7 1f       	adc	r29, r23
    3896:	e8 1f       	adc	r30, r24
    3898:	f9 1f       	adc	r31, r25
    389a:	af 91       	pop	r26
    389c:	bf 91       	pop	r27
    389e:	0e 94 66 1c 	call	0x38cc	; 0x38cc <__muldi3_6>
    38a2:	2f 91       	pop	r18
    38a4:	3f 91       	pop	r19
    38a6:	0e 94 f6 1b 	call	0x37ec	; 0x37ec <__umulhisi3>
    38aa:	c6 0f       	add	r28, r22
    38ac:	d7 1f       	adc	r29, r23
    38ae:	e8 1f       	adc	r30, r24
    38b0:	f9 1f       	adc	r31, r25
    38b2:	d6 01       	movw	r26, r12
    38b4:	0e 94 f6 1b 	call	0x37ec	; 0x37ec <__umulhisi3>
    38b8:	e6 0f       	add	r30, r22
    38ba:	f7 1f       	adc	r31, r23
    38bc:	98 01       	movw	r18, r16
    38be:	be 01       	movw	r22, r28
    38c0:	cf 01       	movw	r24, r30
    38c2:	0f 91       	pop	r16
    38c4:	1f 91       	pop	r17
    38c6:	cf 91       	pop	r28
    38c8:	df 91       	pop	r29
    38ca:	08 95       	ret

000038cc <__muldi3_6>:
    38cc:	0e 94 f6 1b 	call	0x37ec	; 0x37ec <__umulhisi3>
    38d0:	46 0f       	add	r20, r22
    38d2:	57 1f       	adc	r21, r23
    38d4:	c8 1f       	adc	r28, r24
    38d6:	d9 1f       	adc	r29, r25
    38d8:	08 f4       	brcc	.+2      	; 0x38dc <__muldi3_6+0x10>
    38da:	31 96       	adiw	r30, 0x01	; 1
    38dc:	08 95       	ret

000038de <__umulsidi3>:
    38de:	e8 94       	clt

000038e0 <__umulsidi3_helper>:
    38e0:	df 93       	push	r29
    38e2:	cf 93       	push	r28
    38e4:	fc 01       	movw	r30, r24
    38e6:	db 01       	movw	r26, r22
    38e8:	0e 94 f6 1b 	call	0x37ec	; 0x37ec <__umulhisi3>
    38ec:	7f 93       	push	r23
    38ee:	6f 93       	push	r22
    38f0:	e9 01       	movw	r28, r18
    38f2:	9a 01       	movw	r18, r20
    38f4:	ac 01       	movw	r20, r24
    38f6:	bf 93       	push	r27
    38f8:	af 93       	push	r26
    38fa:	3f 93       	push	r19
    38fc:	2f 93       	push	r18
    38fe:	df 01       	movw	r26, r30
    3900:	0e 94 f6 1b 	call	0x37ec	; 0x37ec <__umulhisi3>
    3904:	26 f4       	brtc	.+8      	; 0x390e <__umulsidi3_helper+0x2e>
    3906:	6c 1b       	sub	r22, r28
    3908:	7d 0b       	sbc	r23, r29
    390a:	82 0b       	sbc	r24, r18
    390c:	93 0b       	sbc	r25, r19
    390e:	9e 01       	movw	r18, r28
    3910:	eb 01       	movw	r28, r22
    3912:	fc 01       	movw	r30, r24
    3914:	0e 94 66 1c 	call	0x38cc	; 0x38cc <__muldi3_6>
    3918:	af 91       	pop	r26
    391a:	bf 91       	pop	r27
    391c:	2f 91       	pop	r18
    391e:	3f 91       	pop	r19
    3920:	0e 94 66 1c 	call	0x38cc	; 0x38cc <__muldi3_6>
    3924:	be 01       	movw	r22, r28
    3926:	cf 01       	movw	r24, r30
    3928:	f9 01       	movw	r30, r18
    392a:	2f 91       	pop	r18
    392c:	3f 91       	pop	r19
    392e:	cf 91       	pop	r28
    3930:	df 91       	pop	r29
    3932:	08 95       	ret

00003934 <__prologue_saves__>:
    3934:	2f 92       	push	r2
    3936:	3f 92       	push	r3
    3938:	4f 92       	push	r4
    393a:	5f 92       	push	r5
    393c:	6f 92       	push	r6
    393e:	7f 92       	push	r7
    3940:	8f 92       	push	r8
    3942:	9f 92       	push	r9
    3944:	af 92       	push	r10
    3946:	bf 92       	push	r11
    3948:	cf 92       	push	r12
    394a:	df 92       	push	r13
    394c:	ef 92       	push	r14
    394e:	ff 92       	push	r15
    3950:	0f 93       	push	r16
    3952:	1f 93       	push	r17
    3954:	cf 93       	push	r28
    3956:	df 93       	push	r29
    3958:	cd b7       	in	r28, 0x3d	; 61
    395a:	de b7       	in	r29, 0x3e	; 62
    395c:	ca 1b       	sub	r28, r26
    395e:	db 0b       	sbc	r29, r27
    3960:	0f b6       	in	r0, 0x3f	; 63
    3962:	f8 94       	cli
    3964:	de bf       	out	0x3e, r29	; 62
    3966:	0f be       	out	0x3f, r0	; 63
    3968:	cd bf       	out	0x3d, r28	; 61
    396a:	09 94       	ijmp

0000396c <__epilogue_restores__>:
    396c:	2a 88       	ldd	r2, Y+18	; 0x12
    396e:	39 88       	ldd	r3, Y+17	; 0x11
    3970:	48 88       	ldd	r4, Y+16	; 0x10
    3972:	5f 84       	ldd	r5, Y+15	; 0x0f
    3974:	6e 84       	ldd	r6, Y+14	; 0x0e
    3976:	7d 84       	ldd	r7, Y+13	; 0x0d
    3978:	8c 84       	ldd	r8, Y+12	; 0x0c
    397a:	9b 84       	ldd	r9, Y+11	; 0x0b
    397c:	aa 84       	ldd	r10, Y+10	; 0x0a
    397e:	b9 84       	ldd	r11, Y+9	; 0x09
    3980:	c8 84       	ldd	r12, Y+8	; 0x08
    3982:	df 80       	ldd	r13, Y+7	; 0x07
    3984:	ee 80       	ldd	r14, Y+6	; 0x06
    3986:	fd 80       	ldd	r15, Y+5	; 0x05
    3988:	0c 81       	ldd	r16, Y+4	; 0x04
    398a:	1b 81       	ldd	r17, Y+3	; 0x03
    398c:	aa 81       	ldd	r26, Y+2	; 0x02
    398e:	b9 81       	ldd	r27, Y+1	; 0x01
    3990:	ce 0f       	add	r28, r30
    3992:	d1 1d       	adc	r29, r1
    3994:	0f b6       	in	r0, 0x3f	; 63
    3996:	f8 94       	cli
    3998:	de bf       	out	0x3e, r29	; 62
    399a:	0f be       	out	0x3f, r0	; 63
    399c:	cd bf       	out	0x3d, r28	; 61
    399e:	ed 01       	movw	r28, r26
    39a0:	08 95       	ret

000039a2 <__cmpdi2>:
    39a2:	2a 15       	cp	r18, r10
    39a4:	3b 05       	cpc	r19, r11
    39a6:	4c 05       	cpc	r20, r12
    39a8:	5d 05       	cpc	r21, r13
    39aa:	6e 05       	cpc	r22, r14
    39ac:	7f 05       	cpc	r23, r15
    39ae:	80 07       	cpc	r24, r16
    39b0:	91 07       	cpc	r25, r17
    39b2:	08 95       	ret

000039b4 <__tablejump2__>:
    39b4:	ee 0f       	add	r30, r30
    39b6:	ff 1f       	adc	r31, r31
    39b8:	05 90       	lpm	r0, Z+
    39ba:	f4 91       	lpm	r31, Z
    39bc:	e0 2d       	mov	r30, r0
    39be:	09 94       	ijmp

000039c0 <malloc>:
    39c0:	0f 93       	push	r16
    39c2:	1f 93       	push	r17
    39c4:	cf 93       	push	r28
    39c6:	df 93       	push	r29
    39c8:	82 30       	cpi	r24, 0x02	; 2
    39ca:	91 05       	cpc	r25, r1
    39cc:	10 f4       	brcc	.+4      	; 0x39d2 <malloc+0x12>
    39ce:	82 e0       	ldi	r24, 0x02	; 2
    39d0:	90 e0       	ldi	r25, 0x00	; 0
    39d2:	e0 91 85 03 	lds	r30, 0x0385	; 0x800385 <__flp>
    39d6:	f0 91 86 03 	lds	r31, 0x0386	; 0x800386 <__flp+0x1>
    39da:	30 e0       	ldi	r19, 0x00	; 0
    39dc:	20 e0       	ldi	r18, 0x00	; 0
    39de:	b0 e0       	ldi	r27, 0x00	; 0
    39e0:	a0 e0       	ldi	r26, 0x00	; 0
    39e2:	30 97       	sbiw	r30, 0x00	; 0
    39e4:	99 f4       	brne	.+38     	; 0x3a0c <malloc+0x4c>
    39e6:	21 15       	cp	r18, r1
    39e8:	31 05       	cpc	r19, r1
    39ea:	09 f4       	brne	.+2      	; 0x39ee <malloc+0x2e>
    39ec:	4a c0       	rjmp	.+148    	; 0x3a82 <malloc+0xc2>
    39ee:	28 1b       	sub	r18, r24
    39f0:	39 0b       	sbc	r19, r25
    39f2:	24 30       	cpi	r18, 0x04	; 4
    39f4:	31 05       	cpc	r19, r1
    39f6:	d8 f5       	brcc	.+118    	; 0x3a6e <malloc+0xae>
    39f8:	8a 81       	ldd	r24, Y+2	; 0x02
    39fa:	9b 81       	ldd	r25, Y+3	; 0x03
    39fc:	61 15       	cp	r22, r1
    39fe:	71 05       	cpc	r23, r1
    3a00:	89 f1       	breq	.+98     	; 0x3a64 <malloc+0xa4>
    3a02:	fb 01       	movw	r30, r22
    3a04:	93 83       	std	Z+3, r25	; 0x03
    3a06:	82 83       	std	Z+2, r24	; 0x02
    3a08:	fe 01       	movw	r30, r28
    3a0a:	11 c0       	rjmp	.+34     	; 0x3a2e <malloc+0x6e>
    3a0c:	40 81       	ld	r20, Z
    3a0e:	51 81       	ldd	r21, Z+1	; 0x01
    3a10:	02 81       	ldd	r16, Z+2	; 0x02
    3a12:	13 81       	ldd	r17, Z+3	; 0x03
    3a14:	48 17       	cp	r20, r24
    3a16:	59 07       	cpc	r21, r25
    3a18:	e0 f0       	brcs	.+56     	; 0x3a52 <malloc+0x92>
    3a1a:	48 17       	cp	r20, r24
    3a1c:	59 07       	cpc	r21, r25
    3a1e:	99 f4       	brne	.+38     	; 0x3a46 <malloc+0x86>
    3a20:	10 97       	sbiw	r26, 0x00	; 0
    3a22:	61 f0       	breq	.+24     	; 0x3a3c <malloc+0x7c>
    3a24:	12 96       	adiw	r26, 0x02	; 2
    3a26:	0c 93       	st	X, r16
    3a28:	12 97       	sbiw	r26, 0x02	; 2
    3a2a:	13 96       	adiw	r26, 0x03	; 3
    3a2c:	1c 93       	st	X, r17
    3a2e:	32 96       	adiw	r30, 0x02	; 2
    3a30:	cf 01       	movw	r24, r30
    3a32:	df 91       	pop	r29
    3a34:	cf 91       	pop	r28
    3a36:	1f 91       	pop	r17
    3a38:	0f 91       	pop	r16
    3a3a:	08 95       	ret
    3a3c:	00 93 85 03 	sts	0x0385, r16	; 0x800385 <__flp>
    3a40:	10 93 86 03 	sts	0x0386, r17	; 0x800386 <__flp+0x1>
    3a44:	f4 cf       	rjmp	.-24     	; 0x3a2e <malloc+0x6e>
    3a46:	21 15       	cp	r18, r1
    3a48:	31 05       	cpc	r19, r1
    3a4a:	51 f0       	breq	.+20     	; 0x3a60 <malloc+0xa0>
    3a4c:	42 17       	cp	r20, r18
    3a4e:	53 07       	cpc	r21, r19
    3a50:	38 f0       	brcs	.+14     	; 0x3a60 <malloc+0xa0>
    3a52:	a9 01       	movw	r20, r18
    3a54:	db 01       	movw	r26, r22
    3a56:	9a 01       	movw	r18, r20
    3a58:	bd 01       	movw	r22, r26
    3a5a:	df 01       	movw	r26, r30
    3a5c:	f8 01       	movw	r30, r16
    3a5e:	c1 cf       	rjmp	.-126    	; 0x39e2 <malloc+0x22>
    3a60:	ef 01       	movw	r28, r30
    3a62:	f9 cf       	rjmp	.-14     	; 0x3a56 <malloc+0x96>
    3a64:	90 93 86 03 	sts	0x0386, r25	; 0x800386 <__flp+0x1>
    3a68:	80 93 85 03 	sts	0x0385, r24	; 0x800385 <__flp>
    3a6c:	cd cf       	rjmp	.-102    	; 0x3a08 <malloc+0x48>
    3a6e:	fe 01       	movw	r30, r28
    3a70:	e2 0f       	add	r30, r18
    3a72:	f3 1f       	adc	r31, r19
    3a74:	81 93       	st	Z+, r24
    3a76:	91 93       	st	Z+, r25
    3a78:	22 50       	subi	r18, 0x02	; 2
    3a7a:	31 09       	sbc	r19, r1
    3a7c:	39 83       	std	Y+1, r19	; 0x01
    3a7e:	28 83       	st	Y, r18
    3a80:	d7 cf       	rjmp	.-82     	; 0x3a30 <malloc+0x70>
    3a82:	20 91 83 03 	lds	r18, 0x0383	; 0x800383 <__brkval>
    3a86:	30 91 84 03 	lds	r19, 0x0384	; 0x800384 <__brkval+0x1>
    3a8a:	23 2b       	or	r18, r19
    3a8c:	41 f4       	brne	.+16     	; 0x3a9e <malloc+0xde>
    3a8e:	20 91 02 01 	lds	r18, 0x0102	; 0x800102 <__malloc_heap_start>
    3a92:	30 91 03 01 	lds	r19, 0x0103	; 0x800103 <__malloc_heap_start+0x1>
    3a96:	30 93 84 03 	sts	0x0384, r19	; 0x800384 <__brkval+0x1>
    3a9a:	20 93 83 03 	sts	0x0383, r18	; 0x800383 <__brkval>
    3a9e:	20 91 00 01 	lds	r18, 0x0100	; 0x800100 <__data_start>
    3aa2:	30 91 01 01 	lds	r19, 0x0101	; 0x800101 <__data_start+0x1>
    3aa6:	21 15       	cp	r18, r1
    3aa8:	31 05       	cpc	r19, r1
    3aaa:	41 f4       	brne	.+16     	; 0x3abc <malloc+0xfc>
    3aac:	2d b7       	in	r18, 0x3d	; 61
    3aae:	3e b7       	in	r19, 0x3e	; 62
    3ab0:	40 91 04 01 	lds	r20, 0x0104	; 0x800104 <__malloc_margin>
    3ab4:	50 91 05 01 	lds	r21, 0x0105	; 0x800105 <__malloc_margin+0x1>
    3ab8:	24 1b       	sub	r18, r20
    3aba:	35 0b       	sbc	r19, r21
    3abc:	e0 91 83 03 	lds	r30, 0x0383	; 0x800383 <__brkval>
    3ac0:	f0 91 84 03 	lds	r31, 0x0384	; 0x800384 <__brkval+0x1>
    3ac4:	e2 17       	cp	r30, r18
    3ac6:	f3 07       	cpc	r31, r19
    3ac8:	a0 f4       	brcc	.+40     	; 0x3af2 <malloc+0x132>
    3aca:	2e 1b       	sub	r18, r30
    3acc:	3f 0b       	sbc	r19, r31
    3ace:	28 17       	cp	r18, r24
    3ad0:	39 07       	cpc	r19, r25
    3ad2:	78 f0       	brcs	.+30     	; 0x3af2 <malloc+0x132>
    3ad4:	ac 01       	movw	r20, r24
    3ad6:	4e 5f       	subi	r20, 0xFE	; 254
    3ad8:	5f 4f       	sbci	r21, 0xFF	; 255
    3ada:	24 17       	cp	r18, r20
    3adc:	35 07       	cpc	r19, r21
    3ade:	48 f0       	brcs	.+18     	; 0x3af2 <malloc+0x132>
    3ae0:	4e 0f       	add	r20, r30
    3ae2:	5f 1f       	adc	r21, r31
    3ae4:	50 93 84 03 	sts	0x0384, r21	; 0x800384 <__brkval+0x1>
    3ae8:	40 93 83 03 	sts	0x0383, r20	; 0x800383 <__brkval>
    3aec:	81 93       	st	Z+, r24
    3aee:	91 93       	st	Z+, r25
    3af0:	9f cf       	rjmp	.-194    	; 0x3a30 <malloc+0x70>
    3af2:	f0 e0       	ldi	r31, 0x00	; 0
    3af4:	e0 e0       	ldi	r30, 0x00	; 0
    3af6:	9c cf       	rjmp	.-200    	; 0x3a30 <malloc+0x70>

00003af8 <free>:
    3af8:	cf 93       	push	r28
    3afa:	df 93       	push	r29
    3afc:	00 97       	sbiw	r24, 0x00	; 0
    3afe:	e9 f0       	breq	.+58     	; 0x3b3a <free+0x42>
    3b00:	fc 01       	movw	r30, r24
    3b02:	32 97       	sbiw	r30, 0x02	; 2
    3b04:	13 82       	std	Z+3, r1	; 0x03
    3b06:	12 82       	std	Z+2, r1	; 0x02
    3b08:	a0 91 85 03 	lds	r26, 0x0385	; 0x800385 <__flp>
    3b0c:	b0 91 86 03 	lds	r27, 0x0386	; 0x800386 <__flp+0x1>
    3b10:	ed 01       	movw	r28, r26
    3b12:	30 e0       	ldi	r19, 0x00	; 0
    3b14:	20 e0       	ldi	r18, 0x00	; 0
    3b16:	10 97       	sbiw	r26, 0x00	; 0
    3b18:	a1 f4       	brne	.+40     	; 0x3b42 <free+0x4a>
    3b1a:	20 81       	ld	r18, Z
    3b1c:	31 81       	ldd	r19, Z+1	; 0x01
    3b1e:	82 0f       	add	r24, r18
    3b20:	93 1f       	adc	r25, r19
    3b22:	20 91 83 03 	lds	r18, 0x0383	; 0x800383 <__brkval>
    3b26:	30 91 84 03 	lds	r19, 0x0384	; 0x800384 <__brkval+0x1>
    3b2a:	28 17       	cp	r18, r24
    3b2c:	39 07       	cpc	r19, r25
    3b2e:	09 f0       	breq	.+2      	; 0x3b32 <free+0x3a>
    3b30:	61 c0       	rjmp	.+194    	; 0x3bf4 <free+0xfc>
    3b32:	f0 93 84 03 	sts	0x0384, r31	; 0x800384 <__brkval+0x1>
    3b36:	e0 93 83 03 	sts	0x0383, r30	; 0x800383 <__brkval>
    3b3a:	df 91       	pop	r29
    3b3c:	cf 91       	pop	r28
    3b3e:	08 95       	ret
    3b40:	ea 01       	movw	r28, r20
    3b42:	ce 17       	cp	r28, r30
    3b44:	df 07       	cpc	r29, r31
    3b46:	e8 f5       	brcc	.+122    	; 0x3bc2 <free+0xca>
    3b48:	4a 81       	ldd	r20, Y+2	; 0x02
    3b4a:	5b 81       	ldd	r21, Y+3	; 0x03
    3b4c:	9e 01       	movw	r18, r28
    3b4e:	41 15       	cp	r20, r1
    3b50:	51 05       	cpc	r21, r1
    3b52:	b1 f7       	brne	.-20     	; 0x3b40 <free+0x48>
    3b54:	e9 01       	movw	r28, r18
    3b56:	fb 83       	std	Y+3, r31	; 0x03
    3b58:	ea 83       	std	Y+2, r30	; 0x02
    3b5a:	49 91       	ld	r20, Y+
    3b5c:	59 91       	ld	r21, Y+
    3b5e:	c4 0f       	add	r28, r20
    3b60:	d5 1f       	adc	r29, r21
    3b62:	ec 17       	cp	r30, r28
    3b64:	fd 07       	cpc	r31, r29
    3b66:	61 f4       	brne	.+24     	; 0x3b80 <free+0x88>
    3b68:	80 81       	ld	r24, Z
    3b6a:	91 81       	ldd	r25, Z+1	; 0x01
    3b6c:	02 96       	adiw	r24, 0x02	; 2
    3b6e:	84 0f       	add	r24, r20
    3b70:	95 1f       	adc	r25, r21
    3b72:	e9 01       	movw	r28, r18
    3b74:	99 83       	std	Y+1, r25	; 0x01
    3b76:	88 83       	st	Y, r24
    3b78:	82 81       	ldd	r24, Z+2	; 0x02
    3b7a:	93 81       	ldd	r25, Z+3	; 0x03
    3b7c:	9b 83       	std	Y+3, r25	; 0x03
    3b7e:	8a 83       	std	Y+2, r24	; 0x02
    3b80:	f0 e0       	ldi	r31, 0x00	; 0
    3b82:	e0 e0       	ldi	r30, 0x00	; 0
    3b84:	12 96       	adiw	r26, 0x02	; 2
    3b86:	8d 91       	ld	r24, X+
    3b88:	9c 91       	ld	r25, X
    3b8a:	13 97       	sbiw	r26, 0x03	; 3
    3b8c:	00 97       	sbiw	r24, 0x00	; 0
    3b8e:	b9 f5       	brne	.+110    	; 0x3bfe <free+0x106>
    3b90:	2d 91       	ld	r18, X+
    3b92:	3c 91       	ld	r19, X
    3b94:	11 97       	sbiw	r26, 0x01	; 1
    3b96:	cd 01       	movw	r24, r26
    3b98:	02 96       	adiw	r24, 0x02	; 2
    3b9a:	82 0f       	add	r24, r18
    3b9c:	93 1f       	adc	r25, r19
    3b9e:	20 91 83 03 	lds	r18, 0x0383	; 0x800383 <__brkval>
    3ba2:	30 91 84 03 	lds	r19, 0x0384	; 0x800384 <__brkval+0x1>
    3ba6:	28 17       	cp	r18, r24
    3ba8:	39 07       	cpc	r19, r25
    3baa:	39 f6       	brne	.-114    	; 0x3b3a <free+0x42>
    3bac:	30 97       	sbiw	r30, 0x00	; 0
    3bae:	51 f5       	brne	.+84     	; 0x3c04 <free+0x10c>
    3bb0:	10 92 86 03 	sts	0x0386, r1	; 0x800386 <__flp+0x1>
    3bb4:	10 92 85 03 	sts	0x0385, r1	; 0x800385 <__flp>
    3bb8:	b0 93 84 03 	sts	0x0384, r27	; 0x800384 <__brkval+0x1>
    3bbc:	a0 93 83 03 	sts	0x0383, r26	; 0x800383 <__brkval>
    3bc0:	bc cf       	rjmp	.-136    	; 0x3b3a <free+0x42>
    3bc2:	d3 83       	std	Z+3, r29	; 0x03
    3bc4:	c2 83       	std	Z+2, r28	; 0x02
    3bc6:	40 81       	ld	r20, Z
    3bc8:	51 81       	ldd	r21, Z+1	; 0x01
    3bca:	84 0f       	add	r24, r20
    3bcc:	95 1f       	adc	r25, r21
    3bce:	c8 17       	cp	r28, r24
    3bd0:	d9 07       	cpc	r29, r25
    3bd2:	61 f4       	brne	.+24     	; 0x3bec <free+0xf4>
    3bd4:	4e 5f       	subi	r20, 0xFE	; 254
    3bd6:	5f 4f       	sbci	r21, 0xFF	; 255
    3bd8:	88 81       	ld	r24, Y
    3bda:	99 81       	ldd	r25, Y+1	; 0x01
    3bdc:	48 0f       	add	r20, r24
    3bde:	59 1f       	adc	r21, r25
    3be0:	51 83       	std	Z+1, r21	; 0x01
    3be2:	40 83       	st	Z, r20
    3be4:	8a 81       	ldd	r24, Y+2	; 0x02
    3be6:	9b 81       	ldd	r25, Y+3	; 0x03
    3be8:	93 83       	std	Z+3, r25	; 0x03
    3bea:	82 83       	std	Z+2, r24	; 0x02
    3bec:	21 15       	cp	r18, r1
    3bee:	31 05       	cpc	r19, r1
    3bf0:	09 f0       	breq	.+2      	; 0x3bf4 <free+0xfc>
    3bf2:	b0 cf       	rjmp	.-160    	; 0x3b54 <free+0x5c>
    3bf4:	f0 93 86 03 	sts	0x0386, r31	; 0x800386 <__flp+0x1>
    3bf8:	e0 93 85 03 	sts	0x0385, r30	; 0x800385 <__flp>
    3bfc:	9e cf       	rjmp	.-196    	; 0x3b3a <free+0x42>
    3bfe:	fd 01       	movw	r30, r26
    3c00:	dc 01       	movw	r26, r24
    3c02:	c0 cf       	rjmp	.-128    	; 0x3b84 <free+0x8c>
    3c04:	13 82       	std	Z+3, r1	; 0x03
    3c06:	12 82       	std	Z+2, r1	; 0x02
    3c08:	d7 cf       	rjmp	.-82     	; 0x3bb8 <free+0xc0>

00003c0a <vsnprintf>:
    3c0a:	ae e0       	ldi	r26, 0x0E	; 14
    3c0c:	b0 e0       	ldi	r27, 0x00	; 0
    3c0e:	eb e0       	ldi	r30, 0x0B	; 11
    3c10:	fe e1       	ldi	r31, 0x1E	; 30
    3c12:	0c 94 a8 1c 	jmp	0x3950	; 0x3950 <__prologue_saves__+0x1c>
    3c16:	8c 01       	movw	r16, r24
    3c18:	fa 01       	movw	r30, r20
    3c1a:	86 e0       	ldi	r24, 0x06	; 6
    3c1c:	8c 83       	std	Y+4, r24	; 0x04
    3c1e:	1a 83       	std	Y+2, r17	; 0x02
    3c20:	09 83       	std	Y+1, r16	; 0x01
    3c22:	77 ff       	sbrs	r23, 7
    3c24:	02 c0       	rjmp	.+4      	; 0x3c2a <vsnprintf+0x20>
    3c26:	60 e0       	ldi	r22, 0x00	; 0
    3c28:	70 e8       	ldi	r23, 0x80	; 128
    3c2a:	61 50       	subi	r22, 0x01	; 1
    3c2c:	71 09       	sbc	r23, r1
    3c2e:	7e 83       	std	Y+6, r23	; 0x06
    3c30:	6d 83       	std	Y+5, r22	; 0x05
    3c32:	a9 01       	movw	r20, r18
    3c34:	bf 01       	movw	r22, r30
    3c36:	ce 01       	movw	r24, r28
    3c38:	01 96       	adiw	r24, 0x01	; 1
    3c3a:	0e 94 31 1e 	call	0x3c62	; 0x3c62 <vfprintf>
    3c3e:	4d 81       	ldd	r20, Y+5	; 0x05
    3c40:	5e 81       	ldd	r21, Y+6	; 0x06
    3c42:	57 fd       	sbrc	r21, 7
    3c44:	0a c0       	rjmp	.+20     	; 0x3c5a <vsnprintf+0x50>
    3c46:	2f 81       	ldd	r18, Y+7	; 0x07
    3c48:	38 85       	ldd	r19, Y+8	; 0x08
    3c4a:	42 17       	cp	r20, r18
    3c4c:	53 07       	cpc	r21, r19
    3c4e:	0c f4       	brge	.+2      	; 0x3c52 <vsnprintf+0x48>
    3c50:	9a 01       	movw	r18, r20
    3c52:	02 0f       	add	r16, r18
    3c54:	13 1f       	adc	r17, r19
    3c56:	f8 01       	movw	r30, r16
    3c58:	10 82       	st	Z, r1
    3c5a:	2e 96       	adiw	r28, 0x0e	; 14
    3c5c:	e4 e0       	ldi	r30, 0x04	; 4
    3c5e:	0c 94 c4 1c 	jmp	0x3988	; 0x3988 <__epilogue_restores__+0x1c>

00003c62 <vfprintf>:
    3c62:	ab e0       	ldi	r26, 0x0B	; 11
    3c64:	b0 e0       	ldi	r27, 0x00	; 0
    3c66:	e7 e3       	ldi	r30, 0x37	; 55
    3c68:	fe e1       	ldi	r31, 0x1E	; 30
    3c6a:	0c 94 9a 1c 	jmp	0x3934	; 0x3934 <__prologue_saves__>
    3c6e:	7c 01       	movw	r14, r24
    3c70:	3b 01       	movw	r6, r22
    3c72:	8a 01       	movw	r16, r20
    3c74:	fc 01       	movw	r30, r24
    3c76:	17 82       	std	Z+7, r1	; 0x07
    3c78:	16 82       	std	Z+6, r1	; 0x06
    3c7a:	83 81       	ldd	r24, Z+3	; 0x03
    3c7c:	81 ff       	sbrs	r24, 1
    3c7e:	c8 c1       	rjmp	.+912    	; 0x4010 <vfprintf+0x3ae>
    3c80:	ce 01       	movw	r24, r28
    3c82:	01 96       	adiw	r24, 0x01	; 1
    3c84:	5c 01       	movw	r10, r24
    3c86:	f7 01       	movw	r30, r14
    3c88:	93 81       	ldd	r25, Z+3	; 0x03
    3c8a:	f3 01       	movw	r30, r6
    3c8c:	93 fd       	sbrc	r25, 3
    3c8e:	85 91       	lpm	r24, Z+
    3c90:	93 ff       	sbrs	r25, 3
    3c92:	81 91       	ld	r24, Z+
    3c94:	3f 01       	movw	r6, r30
    3c96:	88 23       	and	r24, r24
    3c98:	09 f4       	brne	.+2      	; 0x3c9c <vfprintf+0x3a>
    3c9a:	53 c1       	rjmp	.+678    	; 0x3f42 <vfprintf+0x2e0>
    3c9c:	85 32       	cpi	r24, 0x25	; 37
    3c9e:	39 f4       	brne	.+14     	; 0x3cae <vfprintf+0x4c>
    3ca0:	93 fd       	sbrc	r25, 3
    3ca2:	85 91       	lpm	r24, Z+
    3ca4:	93 ff       	sbrs	r25, 3
    3ca6:	81 91       	ld	r24, Z+
    3ca8:	3f 01       	movw	r6, r30
    3caa:	85 32       	cpi	r24, 0x25	; 37
    3cac:	29 f4       	brne	.+10     	; 0x3cb8 <vfprintf+0x56>
    3cae:	b7 01       	movw	r22, r14
    3cb0:	90 e0       	ldi	r25, 0x00	; 0
    3cb2:	0e 94 21 20 	call	0x4042	; 0x4042 <fputc>
    3cb6:	e7 cf       	rjmp	.-50     	; 0x3c86 <vfprintf+0x24>
    3cb8:	91 2c       	mov	r9, r1
    3cba:	21 2c       	mov	r2, r1
    3cbc:	31 2c       	mov	r3, r1
    3cbe:	ff e1       	ldi	r31, 0x1F	; 31
    3cc0:	f3 15       	cp	r31, r3
    3cc2:	38 f0       	brcs	.+14     	; 0x3cd2 <vfprintf+0x70>
    3cc4:	8b 32       	cpi	r24, 0x2B	; 43
    3cc6:	11 f1       	breq	.+68     	; 0x3d0c <vfprintf+0xaa>
    3cc8:	90 f4       	brcc	.+36     	; 0x3cee <vfprintf+0x8c>
    3cca:	80 32       	cpi	r24, 0x20	; 32
    3ccc:	09 f1       	breq	.+66     	; 0x3d10 <vfprintf+0xae>
    3cce:	83 32       	cpi	r24, 0x23	; 35
    3cd0:	29 f1       	breq	.+74     	; 0x3d1c <vfprintf+0xba>
    3cd2:	37 fc       	sbrc	r3, 7
    3cd4:	3c c0       	rjmp	.+120    	; 0x3d4e <vfprintf+0xec>
    3cd6:	20 ed       	ldi	r18, 0xD0	; 208
    3cd8:	28 0f       	add	r18, r24
    3cda:	2a 30       	cpi	r18, 0x0A	; 10
    3cdc:	50 f5       	brcc	.+84     	; 0x3d32 <vfprintf+0xd0>
    3cde:	36 fe       	sbrs	r3, 6
    3ce0:	20 c0       	rjmp	.+64     	; 0x3d22 <vfprintf+0xc0>
    3ce2:	8a e0       	ldi	r24, 0x0A	; 10
    3ce4:	98 9e       	mul	r9, r24
    3ce6:	20 0d       	add	r18, r0
    3ce8:	11 24       	eor	r1, r1
    3cea:	92 2e       	mov	r9, r18
    3cec:	06 c0       	rjmp	.+12     	; 0x3cfa <vfprintf+0x98>
    3cee:	8d 32       	cpi	r24, 0x2D	; 45
    3cf0:	91 f0       	breq	.+36     	; 0x3d16 <vfprintf+0xb4>
    3cf2:	80 33       	cpi	r24, 0x30	; 48
    3cf4:	71 f7       	brne	.-36     	; 0x3cd2 <vfprintf+0x70>
    3cf6:	68 94       	set
    3cf8:	30 f8       	bld	r3, 0
    3cfa:	f3 01       	movw	r30, r6
    3cfc:	93 fd       	sbrc	r25, 3
    3cfe:	85 91       	lpm	r24, Z+
    3d00:	93 ff       	sbrs	r25, 3
    3d02:	81 91       	ld	r24, Z+
    3d04:	3f 01       	movw	r6, r30
    3d06:	81 11       	cpse	r24, r1
    3d08:	da cf       	rjmp	.-76     	; 0x3cbe <vfprintf+0x5c>
    3d0a:	21 c0       	rjmp	.+66     	; 0x3d4e <vfprintf+0xec>
    3d0c:	68 94       	set
    3d0e:	31 f8       	bld	r3, 1
    3d10:	68 94       	set
    3d12:	32 f8       	bld	r3, 2
    3d14:	f2 cf       	rjmp	.-28     	; 0x3cfa <vfprintf+0x98>
    3d16:	68 94       	set
    3d18:	33 f8       	bld	r3, 3
    3d1a:	ef cf       	rjmp	.-34     	; 0x3cfa <vfprintf+0x98>
    3d1c:	68 94       	set
    3d1e:	34 f8       	bld	r3, 4
    3d20:	ec cf       	rjmp	.-40     	; 0x3cfa <vfprintf+0x98>
    3d22:	ea e0       	ldi	r30, 0x0A	; 10
    3d24:	2e 9e       	mul	r2, r30
    3d26:	20 0d       	add	r18, r0
    3d28:	11 24       	eor	r1, r1
    3d2a:	22 2e       	mov	r2, r18
    3d2c:	68 94       	set
    3d2e:	35 f8       	bld	r3, 5
    3d30:	e4 cf       	rjmp	.-56     	; 0x3cfa <vfprintf+0x98>
    3d32:	8e 32       	cpi	r24, 0x2E	; 46
    3d34:	29 f4       	brne	.+10     	; 0x3d40 <vfprintf+0xde>
    3d36:	36 fc       	sbrc	r3, 6
    3d38:	04 c1       	rjmp	.+520    	; 0x3f42 <vfprintf+0x2e0>
    3d3a:	68 94       	set
    3d3c:	36 f8       	bld	r3, 6
    3d3e:	dd cf       	rjmp	.-70     	; 0x3cfa <vfprintf+0x98>
    3d40:	8c 36       	cpi	r24, 0x6C	; 108
    3d42:	19 f4       	brne	.+6      	; 0x3d4a <vfprintf+0xe8>
    3d44:	68 94       	set
    3d46:	37 f8       	bld	r3, 7
    3d48:	d8 cf       	rjmp	.-80     	; 0x3cfa <vfprintf+0x98>
    3d4a:	88 36       	cpi	r24, 0x68	; 104
    3d4c:	b1 f2       	breq	.-84     	; 0x3cfa <vfprintf+0x98>
    3d4e:	98 2f       	mov	r25, r24
    3d50:	9f 7d       	andi	r25, 0xDF	; 223
    3d52:	95 54       	subi	r25, 0x45	; 69
    3d54:	93 30       	cpi	r25, 0x03	; 3
    3d56:	e0 f0       	brcs	.+56     	; 0x3d90 <vfprintf+0x12e>
    3d58:	83 36       	cpi	r24, 0x63	; 99
    3d5a:	a1 f1       	breq	.+104    	; 0x3dc4 <vfprintf+0x162>
    3d5c:	83 37       	cpi	r24, 0x73	; 115
    3d5e:	c1 f1       	breq	.+112    	; 0x3dd0 <vfprintf+0x16e>
    3d60:	83 35       	cpi	r24, 0x53	; 83
    3d62:	09 f0       	breq	.+2      	; 0x3d66 <vfprintf+0x104>
    3d64:	63 c0       	rjmp	.+198    	; 0x3e2c <vfprintf+0x1ca>
    3d66:	28 01       	movw	r4, r16
    3d68:	f2 e0       	ldi	r31, 0x02	; 2
    3d6a:	4f 0e       	add	r4, r31
    3d6c:	51 1c       	adc	r5, r1
    3d6e:	f8 01       	movw	r30, r16
    3d70:	c0 80       	ld	r12, Z
    3d72:	d1 80       	ldd	r13, Z+1	; 0x01
    3d74:	69 2d       	mov	r22, r9
    3d76:	70 e0       	ldi	r23, 0x00	; 0
    3d78:	36 fc       	sbrc	r3, 6
    3d7a:	02 c0       	rjmp	.+4      	; 0x3d80 <vfprintf+0x11e>
    3d7c:	6f ef       	ldi	r22, 0xFF	; 255
    3d7e:	7f ef       	ldi	r23, 0xFF	; 255
    3d80:	c6 01       	movw	r24, r12
    3d82:	0e 94 0b 20 	call	0x4016	; 0x4016 <strnlen_P>
    3d86:	4c 01       	movw	r8, r24
    3d88:	68 94       	set
    3d8a:	37 f8       	bld	r3, 7
    3d8c:	82 01       	movw	r16, r4
    3d8e:	0a c0       	rjmp	.+20     	; 0x3da4 <vfprintf+0x142>
    3d90:	0c 5f       	subi	r16, 0xFC	; 252
    3d92:	1f 4f       	sbci	r17, 0xFF	; 255
    3d94:	ff e3       	ldi	r31, 0x3F	; 63
    3d96:	f9 83       	std	Y+1, r31	; 0x01
    3d98:	88 24       	eor	r8, r8
    3d9a:	83 94       	inc	r8
    3d9c:	91 2c       	mov	r9, r1
    3d9e:	65 01       	movw	r12, r10
    3da0:	e8 94       	clt
    3da2:	37 f8       	bld	r3, 7
    3da4:	33 fe       	sbrs	r3, 3
    3da6:	2d c0       	rjmp	.+90     	; 0x3e02 <vfprintf+0x1a0>
    3da8:	52 2c       	mov	r5, r2
    3daa:	81 14       	cp	r8, r1
    3dac:	91 04       	cpc	r9, r1
    3dae:	71 f5       	brne	.+92     	; 0x3e0c <vfprintf+0x1aa>
    3db0:	55 20       	and	r5, r5
    3db2:	09 f4       	brne	.+2      	; 0x3db6 <vfprintf+0x154>
    3db4:	68 cf       	rjmp	.-304    	; 0x3c86 <vfprintf+0x24>
    3db6:	b7 01       	movw	r22, r14
    3db8:	80 e2       	ldi	r24, 0x20	; 32
    3dba:	90 e0       	ldi	r25, 0x00	; 0
    3dbc:	0e 94 21 20 	call	0x4042	; 0x4042 <fputc>
    3dc0:	5a 94       	dec	r5
    3dc2:	f6 cf       	rjmp	.-20     	; 0x3db0 <vfprintf+0x14e>
    3dc4:	f8 01       	movw	r30, r16
    3dc6:	80 81       	ld	r24, Z
    3dc8:	89 83       	std	Y+1, r24	; 0x01
    3dca:	0e 5f       	subi	r16, 0xFE	; 254
    3dcc:	1f 4f       	sbci	r17, 0xFF	; 255
    3dce:	e4 cf       	rjmp	.-56     	; 0x3d98 <vfprintf+0x136>
    3dd0:	28 01       	movw	r4, r16
    3dd2:	f2 e0       	ldi	r31, 0x02	; 2
    3dd4:	4f 0e       	add	r4, r31
    3dd6:	51 1c       	adc	r5, r1
    3dd8:	f8 01       	movw	r30, r16
    3dda:	c0 80       	ld	r12, Z
    3ddc:	d1 80       	ldd	r13, Z+1	; 0x01
    3dde:	69 2d       	mov	r22, r9
    3de0:	70 e0       	ldi	r23, 0x00	; 0
    3de2:	36 fc       	sbrc	r3, 6
    3de4:	02 c0       	rjmp	.+4      	; 0x3dea <vfprintf+0x188>
    3de6:	6f ef       	ldi	r22, 0xFF	; 255
    3de8:	7f ef       	ldi	r23, 0xFF	; 255
    3dea:	c6 01       	movw	r24, r12
    3dec:	0e 94 16 20 	call	0x402c	; 0x402c <strnlen>
    3df0:	4c 01       	movw	r8, r24
    3df2:	82 01       	movw	r16, r4
    3df4:	d5 cf       	rjmp	.-86     	; 0x3da0 <vfprintf+0x13e>
    3df6:	b7 01       	movw	r22, r14
    3df8:	80 e2       	ldi	r24, 0x20	; 32
    3dfa:	90 e0       	ldi	r25, 0x00	; 0
    3dfc:	0e 94 21 20 	call	0x4042	; 0x4042 <fputc>
    3e00:	2a 94       	dec	r2
    3e02:	28 14       	cp	r2, r8
    3e04:	19 04       	cpc	r1, r9
    3e06:	09 f0       	breq	.+2      	; 0x3e0a <vfprintf+0x1a8>
    3e08:	b0 f7       	brcc	.-20     	; 0x3df6 <vfprintf+0x194>
    3e0a:	ce cf       	rjmp	.-100    	; 0x3da8 <vfprintf+0x146>
    3e0c:	f6 01       	movw	r30, r12
    3e0e:	37 fc       	sbrc	r3, 7
    3e10:	85 91       	lpm	r24, Z+
    3e12:	37 fe       	sbrs	r3, 7
    3e14:	81 91       	ld	r24, Z+
    3e16:	6f 01       	movw	r12, r30
    3e18:	b7 01       	movw	r22, r14
    3e1a:	90 e0       	ldi	r25, 0x00	; 0
    3e1c:	0e 94 21 20 	call	0x4042	; 0x4042 <fputc>
    3e20:	51 10       	cpse	r5, r1
    3e22:	5a 94       	dec	r5
    3e24:	f1 e0       	ldi	r31, 0x01	; 1
    3e26:	8f 1a       	sub	r8, r31
    3e28:	91 08       	sbc	r9, r1
    3e2a:	bf cf       	rjmp	.-130    	; 0x3daa <vfprintf+0x148>
    3e2c:	84 36       	cpi	r24, 0x64	; 100
    3e2e:	19 f0       	breq	.+6      	; 0x3e36 <vfprintf+0x1d4>
    3e30:	89 36       	cpi	r24, 0x69	; 105
    3e32:	09 f0       	breq	.+2      	; 0x3e36 <vfprintf+0x1d4>
    3e34:	77 c0       	rjmp	.+238    	; 0x3f24 <vfprintf+0x2c2>
    3e36:	f8 01       	movw	r30, r16
    3e38:	37 fe       	sbrs	r3, 7
    3e3a:	6b c0       	rjmp	.+214    	; 0x3f12 <vfprintf+0x2b0>
    3e3c:	60 81       	ld	r22, Z
    3e3e:	71 81       	ldd	r23, Z+1	; 0x01
    3e40:	82 81       	ldd	r24, Z+2	; 0x02
    3e42:	93 81       	ldd	r25, Z+3	; 0x03
    3e44:	0c 5f       	subi	r16, 0xFC	; 252
    3e46:	1f 4f       	sbci	r17, 0xFF	; 255
    3e48:	f3 2d       	mov	r31, r3
    3e4a:	ff 76       	andi	r31, 0x6F	; 111
    3e4c:	3f 2e       	mov	r3, r31
    3e4e:	97 ff       	sbrs	r25, 7
    3e50:	09 c0       	rjmp	.+18     	; 0x3e64 <vfprintf+0x202>
    3e52:	90 95       	com	r25
    3e54:	80 95       	com	r24
    3e56:	70 95       	com	r23
    3e58:	61 95       	neg	r22
    3e5a:	7f 4f       	sbci	r23, 0xFF	; 255
    3e5c:	8f 4f       	sbci	r24, 0xFF	; 255
    3e5e:	9f 4f       	sbci	r25, 0xFF	; 255
    3e60:	68 94       	set
    3e62:	37 f8       	bld	r3, 7
    3e64:	2a e0       	ldi	r18, 0x0A	; 10
    3e66:	30 e0       	ldi	r19, 0x00	; 0
    3e68:	a5 01       	movw	r20, r10
    3e6a:	0e 94 51 20 	call	0x40a2	; 0x40a2 <__ultoa_invert>
    3e6e:	c8 2e       	mov	r12, r24
    3e70:	ca 18       	sub	r12, r10
    3e72:	8c 2c       	mov	r8, r12
    3e74:	43 2c       	mov	r4, r3
    3e76:	36 fe       	sbrs	r3, 6
    3e78:	0c c0       	rjmp	.+24     	; 0x3e92 <vfprintf+0x230>
    3e7a:	e8 94       	clt
    3e7c:	40 f8       	bld	r4, 0
    3e7e:	c9 14       	cp	r12, r9
    3e80:	40 f4       	brcc	.+16     	; 0x3e92 <vfprintf+0x230>
    3e82:	34 fe       	sbrs	r3, 4
    3e84:	05 c0       	rjmp	.+10     	; 0x3e90 <vfprintf+0x22e>
    3e86:	32 fc       	sbrc	r3, 2
    3e88:	03 c0       	rjmp	.+6      	; 0x3e90 <vfprintf+0x22e>
    3e8a:	f3 2d       	mov	r31, r3
    3e8c:	fe 7e       	andi	r31, 0xEE	; 238
    3e8e:	4f 2e       	mov	r4, r31
    3e90:	89 2c       	mov	r8, r9
    3e92:	44 fe       	sbrs	r4, 4
    3e94:	95 c0       	rjmp	.+298    	; 0x3fc0 <vfprintf+0x35e>
    3e96:	fe 01       	movw	r30, r28
    3e98:	ec 0d       	add	r30, r12
    3e9a:	f1 1d       	adc	r31, r1
    3e9c:	80 81       	ld	r24, Z
    3e9e:	80 33       	cpi	r24, 0x30	; 48
    3ea0:	09 f0       	breq	.+2      	; 0x3ea4 <vfprintf+0x242>
    3ea2:	87 c0       	rjmp	.+270    	; 0x3fb2 <vfprintf+0x350>
    3ea4:	24 2d       	mov	r18, r4
    3ea6:	29 7e       	andi	r18, 0xE9	; 233
    3ea8:	42 2e       	mov	r4, r18
    3eaa:	84 2d       	mov	r24, r4
    3eac:	88 70       	andi	r24, 0x08	; 8
    3eae:	58 2e       	mov	r5, r24
    3eb0:	43 fc       	sbrc	r4, 3
    3eb2:	95 c0       	rjmp	.+298    	; 0x3fde <vfprintf+0x37c>
    3eb4:	40 fe       	sbrs	r4, 0
    3eb6:	8f c0       	rjmp	.+286    	; 0x3fd6 <vfprintf+0x374>
    3eb8:	9c 2c       	mov	r9, r12
    3eba:	82 14       	cp	r8, r2
    3ebc:	18 f4       	brcc	.+6      	; 0x3ec4 <vfprintf+0x262>
    3ebe:	2c 0c       	add	r2, r12
    3ec0:	92 2c       	mov	r9, r2
    3ec2:	98 18       	sub	r9, r8
    3ec4:	44 fe       	sbrs	r4, 4
    3ec6:	91 c0       	rjmp	.+290    	; 0x3fea <vfprintf+0x388>
    3ec8:	b7 01       	movw	r22, r14
    3eca:	80 e3       	ldi	r24, 0x30	; 48
    3ecc:	90 e0       	ldi	r25, 0x00	; 0
    3ece:	0e 94 21 20 	call	0x4042	; 0x4042 <fputc>
    3ed2:	42 fe       	sbrs	r4, 2
    3ed4:	09 c0       	rjmp	.+18     	; 0x3ee8 <vfprintf+0x286>
    3ed6:	88 e7       	ldi	r24, 0x78	; 120
    3ed8:	90 e0       	ldi	r25, 0x00	; 0
    3eda:	41 fe       	sbrs	r4, 1
    3edc:	02 c0       	rjmp	.+4      	; 0x3ee2 <vfprintf+0x280>
    3ede:	88 e5       	ldi	r24, 0x58	; 88
    3ee0:	90 e0       	ldi	r25, 0x00	; 0
    3ee2:	b7 01       	movw	r22, r14
    3ee4:	0e 94 21 20 	call	0x4042	; 0x4042 <fputc>
    3ee8:	c9 14       	cp	r12, r9
    3eea:	08 f4       	brcc	.+2      	; 0x3eee <vfprintf+0x28c>
    3eec:	8a c0       	rjmp	.+276    	; 0x4002 <vfprintf+0x3a0>
    3eee:	ca 94       	dec	r12
    3ef0:	d1 2c       	mov	r13, r1
    3ef2:	9f ef       	ldi	r25, 0xFF	; 255
    3ef4:	c9 1a       	sub	r12, r25
    3ef6:	d9 0a       	sbc	r13, r25
    3ef8:	ca 0c       	add	r12, r10
    3efa:	db 1c       	adc	r13, r11
    3efc:	f6 01       	movw	r30, r12
    3efe:	82 91       	ld	r24, -Z
    3f00:	6f 01       	movw	r12, r30
    3f02:	b7 01       	movw	r22, r14
    3f04:	90 e0       	ldi	r25, 0x00	; 0
    3f06:	0e 94 21 20 	call	0x4042	; 0x4042 <fputc>
    3f0a:	ac 14       	cp	r10, r12
    3f0c:	bd 04       	cpc	r11, r13
    3f0e:	b1 f7       	brne	.-20     	; 0x3efc <vfprintf+0x29a>
    3f10:	4f cf       	rjmp	.-354    	; 0x3db0 <vfprintf+0x14e>
    3f12:	60 81       	ld	r22, Z
    3f14:	71 81       	ldd	r23, Z+1	; 0x01
    3f16:	07 2e       	mov	r0, r23
    3f18:	00 0c       	add	r0, r0
    3f1a:	88 0b       	sbc	r24, r24
    3f1c:	99 0b       	sbc	r25, r25
    3f1e:	0e 5f       	subi	r16, 0xFE	; 254
    3f20:	1f 4f       	sbci	r17, 0xFF	; 255
    3f22:	92 cf       	rjmp	.-220    	; 0x3e48 <vfprintf+0x1e6>
    3f24:	d3 2c       	mov	r13, r3
    3f26:	e8 94       	clt
    3f28:	d4 f8       	bld	r13, 4
    3f2a:	2a e0       	ldi	r18, 0x0A	; 10
    3f2c:	30 e0       	ldi	r19, 0x00	; 0
    3f2e:	85 37       	cpi	r24, 0x75	; 117
    3f30:	39 f1       	breq	.+78     	; 0x3f80 <vfprintf+0x31e>
    3f32:	23 2d       	mov	r18, r3
    3f34:	29 7f       	andi	r18, 0xF9	; 249
    3f36:	d2 2e       	mov	r13, r18
    3f38:	8f 36       	cpi	r24, 0x6F	; 111
    3f3a:	01 f1       	breq	.+64     	; 0x3f7c <vfprintf+0x31a>
    3f3c:	48 f4       	brcc	.+18     	; 0x3f50 <vfprintf+0x2ee>
    3f3e:	88 35       	cpi	r24, 0x58	; 88
    3f40:	a9 f0       	breq	.+42     	; 0x3f6c <vfprintf+0x30a>
    3f42:	f7 01       	movw	r30, r14
    3f44:	86 81       	ldd	r24, Z+6	; 0x06
    3f46:	97 81       	ldd	r25, Z+7	; 0x07
    3f48:	2b 96       	adiw	r28, 0x0b	; 11
    3f4a:	e2 e1       	ldi	r30, 0x12	; 18
    3f4c:	0c 94 b6 1c 	jmp	0x396c	; 0x396c <__epilogue_restores__>
    3f50:	80 37       	cpi	r24, 0x70	; 112
    3f52:	49 f0       	breq	.+18     	; 0x3f66 <vfprintf+0x304>
    3f54:	88 37       	cpi	r24, 0x78	; 120
    3f56:	a9 f7       	brne	.-22     	; 0x3f42 <vfprintf+0x2e0>
    3f58:	d4 fe       	sbrs	r13, 4
    3f5a:	02 c0       	rjmp	.+4      	; 0x3f60 <vfprintf+0x2fe>
    3f5c:	68 94       	set
    3f5e:	d2 f8       	bld	r13, 2
    3f60:	20 e1       	ldi	r18, 0x10	; 16
    3f62:	30 e0       	ldi	r19, 0x00	; 0
    3f64:	0d c0       	rjmp	.+26     	; 0x3f80 <vfprintf+0x31e>
    3f66:	68 94       	set
    3f68:	d4 f8       	bld	r13, 4
    3f6a:	f6 cf       	rjmp	.-20     	; 0x3f58 <vfprintf+0x2f6>
    3f6c:	34 fe       	sbrs	r3, 4
    3f6e:	03 c0       	rjmp	.+6      	; 0x3f76 <vfprintf+0x314>
    3f70:	82 2f       	mov	r24, r18
    3f72:	86 60       	ori	r24, 0x06	; 6
    3f74:	d8 2e       	mov	r13, r24
    3f76:	20 e1       	ldi	r18, 0x10	; 16
    3f78:	32 e0       	ldi	r19, 0x02	; 2
    3f7a:	02 c0       	rjmp	.+4      	; 0x3f80 <vfprintf+0x31e>
    3f7c:	28 e0       	ldi	r18, 0x08	; 8
    3f7e:	30 e0       	ldi	r19, 0x00	; 0
    3f80:	f8 01       	movw	r30, r16
    3f82:	d7 fe       	sbrs	r13, 7
    3f84:	0f c0       	rjmp	.+30     	; 0x3fa4 <vfprintf+0x342>
    3f86:	60 81       	ld	r22, Z
    3f88:	71 81       	ldd	r23, Z+1	; 0x01
    3f8a:	82 81       	ldd	r24, Z+2	; 0x02
    3f8c:	93 81       	ldd	r25, Z+3	; 0x03
    3f8e:	0c 5f       	subi	r16, 0xFC	; 252
    3f90:	1f 4f       	sbci	r17, 0xFF	; 255
    3f92:	a5 01       	movw	r20, r10
    3f94:	0e 94 51 20 	call	0x40a2	; 0x40a2 <__ultoa_invert>
    3f98:	c8 2e       	mov	r12, r24
    3f9a:	ca 18       	sub	r12, r10
    3f9c:	3d 2c       	mov	r3, r13
    3f9e:	e8 94       	clt
    3fa0:	37 f8       	bld	r3, 7
    3fa2:	67 cf       	rjmp	.-306    	; 0x3e72 <vfprintf+0x210>
    3fa4:	60 81       	ld	r22, Z
    3fa6:	71 81       	ldd	r23, Z+1	; 0x01
    3fa8:	90 e0       	ldi	r25, 0x00	; 0
    3faa:	80 e0       	ldi	r24, 0x00	; 0
    3fac:	0e 5f       	subi	r16, 0xFE	; 254
    3fae:	1f 4f       	sbci	r17, 0xFF	; 255
    3fb0:	f0 cf       	rjmp	.-32     	; 0x3f92 <vfprintf+0x330>
    3fb2:	42 fc       	sbrc	r4, 2
    3fb4:	02 c0       	rjmp	.+4      	; 0x3fba <vfprintf+0x358>
    3fb6:	83 94       	inc	r8
    3fb8:	78 cf       	rjmp	.-272    	; 0x3eaa <vfprintf+0x248>
    3fba:	83 94       	inc	r8
    3fbc:	83 94       	inc	r8
    3fbe:	75 cf       	rjmp	.-278    	; 0x3eaa <vfprintf+0x248>
    3fc0:	84 2d       	mov	r24, r4
    3fc2:	86 78       	andi	r24, 0x86	; 134
    3fc4:	09 f4       	brne	.+2      	; 0x3fc8 <vfprintf+0x366>
    3fc6:	71 cf       	rjmp	.-286    	; 0x3eaa <vfprintf+0x248>
    3fc8:	f6 cf       	rjmp	.-20     	; 0x3fb6 <vfprintf+0x354>
    3fca:	b7 01       	movw	r22, r14
    3fcc:	80 e2       	ldi	r24, 0x20	; 32
    3fce:	90 e0       	ldi	r25, 0x00	; 0
    3fd0:	0e 94 21 20 	call	0x4042	; 0x4042 <fputc>
    3fd4:	83 94       	inc	r8
    3fd6:	82 14       	cp	r8, r2
    3fd8:	c0 f3       	brcs	.-16     	; 0x3fca <vfprintf+0x368>
    3fda:	51 2c       	mov	r5, r1
    3fdc:	73 cf       	rjmp	.-282    	; 0x3ec4 <vfprintf+0x262>
    3fde:	52 2c       	mov	r5, r2
    3fe0:	58 18       	sub	r5, r8
    3fe2:	82 14       	cp	r8, r2
    3fe4:	08 f4       	brcc	.+2      	; 0x3fe8 <vfprintf+0x386>
    3fe6:	6e cf       	rjmp	.-292    	; 0x3ec4 <vfprintf+0x262>
    3fe8:	f8 cf       	rjmp	.-16     	; 0x3fda <vfprintf+0x378>
    3fea:	84 2d       	mov	r24, r4
    3fec:	86 78       	andi	r24, 0x86	; 134
    3fee:	09 f4       	brne	.+2      	; 0x3ff2 <vfprintf+0x390>
    3ff0:	7b cf       	rjmp	.-266    	; 0x3ee8 <vfprintf+0x286>
    3ff2:	8b e2       	ldi	r24, 0x2B	; 43
    3ff4:	41 fe       	sbrs	r4, 1
    3ff6:	80 e2       	ldi	r24, 0x20	; 32
    3ff8:	47 fc       	sbrc	r4, 7
    3ffa:	8d e2       	ldi	r24, 0x2D	; 45
    3ffc:	b7 01       	movw	r22, r14
    3ffe:	90 e0       	ldi	r25, 0x00	; 0
    4000:	71 cf       	rjmp	.-286    	; 0x3ee4 <vfprintf+0x282>
    4002:	b7 01       	movw	r22, r14
    4004:	80 e3       	ldi	r24, 0x30	; 48
    4006:	90 e0       	ldi	r25, 0x00	; 0
    4008:	0e 94 21 20 	call	0x4042	; 0x4042 <fputc>
    400c:	9a 94       	dec	r9
    400e:	6c cf       	rjmp	.-296    	; 0x3ee8 <vfprintf+0x286>
    4010:	8f ef       	ldi	r24, 0xFF	; 255
    4012:	9f ef       	ldi	r25, 0xFF	; 255
    4014:	99 cf       	rjmp	.-206    	; 0x3f48 <vfprintf+0x2e6>

00004016 <strnlen_P>:
    4016:	fc 01       	movw	r30, r24
    4018:	05 90       	lpm	r0, Z+
    401a:	61 50       	subi	r22, 0x01	; 1
    401c:	70 40       	sbci	r23, 0x00	; 0
    401e:	01 10       	cpse	r0, r1
    4020:	d8 f7       	brcc	.-10     	; 0x4018 <strnlen_P+0x2>
    4022:	80 95       	com	r24
    4024:	90 95       	com	r25
    4026:	8e 0f       	add	r24, r30
    4028:	9f 1f       	adc	r25, r31
    402a:	08 95       	ret

0000402c <strnlen>:
    402c:	fc 01       	movw	r30, r24
    402e:	61 50       	subi	r22, 0x01	; 1
    4030:	70 40       	sbci	r23, 0x00	; 0
    4032:	01 90       	ld	r0, Z+
    4034:	01 10       	cpse	r0, r1
    4036:	d8 f7       	brcc	.-10     	; 0x402e <strnlen+0x2>
    4038:	80 95       	com	r24
    403a:	90 95       	com	r25
    403c:	8e 0f       	add	r24, r30
    403e:	9f 1f       	adc	r25, r31
    4040:	08 95       	ret

00004042 <fputc>:
    4042:	0f 93       	push	r16
    4044:	1f 93       	push	r17
    4046:	cf 93       	push	r28
    4048:	df 93       	push	r29
    404a:	18 2f       	mov	r17, r24
    404c:	09 2f       	mov	r16, r25
    404e:	eb 01       	movw	r28, r22
    4050:	8b 81       	ldd	r24, Y+3	; 0x03
    4052:	81 fd       	sbrc	r24, 1
    4054:	09 c0       	rjmp	.+18     	; 0x4068 <fputc+0x26>
    4056:	1f ef       	ldi	r17, 0xFF	; 255
    4058:	0f ef       	ldi	r16, 0xFF	; 255
    405a:	81 2f       	mov	r24, r17
    405c:	90 2f       	mov	r25, r16
    405e:	df 91       	pop	r29
    4060:	cf 91       	pop	r28
    4062:	1f 91       	pop	r17
    4064:	0f 91       	pop	r16
    4066:	08 95       	ret
    4068:	82 ff       	sbrs	r24, 2
    406a:	14 c0       	rjmp	.+40     	; 0x4094 <fputc+0x52>
    406c:	2e 81       	ldd	r18, Y+6	; 0x06
    406e:	3f 81       	ldd	r19, Y+7	; 0x07
    4070:	8c 81       	ldd	r24, Y+4	; 0x04
    4072:	9d 81       	ldd	r25, Y+5	; 0x05
    4074:	28 17       	cp	r18, r24
    4076:	39 07       	cpc	r19, r25
    4078:	3c f4       	brge	.+14     	; 0x4088 <fputc+0x46>
    407a:	e8 81       	ld	r30, Y
    407c:	f9 81       	ldd	r31, Y+1	; 0x01
    407e:	cf 01       	movw	r24, r30
    4080:	01 96       	adiw	r24, 0x01	; 1
    4082:	99 83       	std	Y+1, r25	; 0x01
    4084:	88 83       	st	Y, r24
    4086:	10 83       	st	Z, r17
    4088:	8e 81       	ldd	r24, Y+6	; 0x06
    408a:	9f 81       	ldd	r25, Y+7	; 0x07
    408c:	01 96       	adiw	r24, 0x01	; 1
    408e:	9f 83       	std	Y+7, r25	; 0x07
    4090:	8e 83       	std	Y+6, r24	; 0x06
    4092:	e3 cf       	rjmp	.-58     	; 0x405a <fputc+0x18>
    4094:	e8 85       	ldd	r30, Y+8	; 0x08
    4096:	f9 85       	ldd	r31, Y+9	; 0x09
    4098:	81 2f       	mov	r24, r17
    409a:	09 95       	icall
    409c:	89 2b       	or	r24, r25
    409e:	a1 f3       	breq	.-24     	; 0x4088 <fputc+0x46>
    40a0:	da cf       	rjmp	.-76     	; 0x4056 <fputc+0x14>

000040a2 <__ultoa_invert>:
    40a2:	fa 01       	movw	r30, r20
    40a4:	aa 27       	eor	r26, r26
    40a6:	28 30       	cpi	r18, 0x08	; 8
    40a8:	51 f1       	breq	.+84     	; 0x40fe <__ultoa_invert+0x5c>
    40aa:	20 31       	cpi	r18, 0x10	; 16
    40ac:	81 f1       	breq	.+96     	; 0x410e <__ultoa_invert+0x6c>
    40ae:	e8 94       	clt
    40b0:	6f 93       	push	r22
    40b2:	6e 7f       	andi	r22, 0xFE	; 254
    40b4:	6e 5f       	subi	r22, 0xFE	; 254
    40b6:	7f 4f       	sbci	r23, 0xFF	; 255
    40b8:	8f 4f       	sbci	r24, 0xFF	; 255
    40ba:	9f 4f       	sbci	r25, 0xFF	; 255
    40bc:	af 4f       	sbci	r26, 0xFF	; 255
    40be:	b1 e0       	ldi	r27, 0x01	; 1
    40c0:	3e d0       	rcall	.+124    	; 0x413e <__ultoa_invert+0x9c>
    40c2:	b4 e0       	ldi	r27, 0x04	; 4
    40c4:	3c d0       	rcall	.+120    	; 0x413e <__ultoa_invert+0x9c>
    40c6:	67 0f       	add	r22, r23
    40c8:	78 1f       	adc	r23, r24
    40ca:	89 1f       	adc	r24, r25
    40cc:	9a 1f       	adc	r25, r26
    40ce:	a1 1d       	adc	r26, r1
    40d0:	68 0f       	add	r22, r24
    40d2:	79 1f       	adc	r23, r25
    40d4:	8a 1f       	adc	r24, r26
    40d6:	91 1d       	adc	r25, r1
    40d8:	a1 1d       	adc	r26, r1
    40da:	6a 0f       	add	r22, r26
    40dc:	71 1d       	adc	r23, r1
    40de:	81 1d       	adc	r24, r1
    40e0:	91 1d       	adc	r25, r1
    40e2:	a1 1d       	adc	r26, r1
    40e4:	20 d0       	rcall	.+64     	; 0x4126 <__ultoa_invert+0x84>
    40e6:	09 f4       	brne	.+2      	; 0x40ea <__ultoa_invert+0x48>
    40e8:	68 94       	set
    40ea:	3f 91       	pop	r19
    40ec:	2a e0       	ldi	r18, 0x0A	; 10
    40ee:	26 9f       	mul	r18, r22
    40f0:	11 24       	eor	r1, r1
    40f2:	30 19       	sub	r19, r0
    40f4:	30 5d       	subi	r19, 0xD0	; 208
    40f6:	31 93       	st	Z+, r19
    40f8:	de f6       	brtc	.-74     	; 0x40b0 <__ultoa_invert+0xe>
    40fa:	cf 01       	movw	r24, r30
    40fc:	08 95       	ret
    40fe:	46 2f       	mov	r20, r22
    4100:	47 70       	andi	r20, 0x07	; 7
    4102:	40 5d       	subi	r20, 0xD0	; 208
    4104:	41 93       	st	Z+, r20
    4106:	b3 e0       	ldi	r27, 0x03	; 3
    4108:	0f d0       	rcall	.+30     	; 0x4128 <__ultoa_invert+0x86>
    410a:	c9 f7       	brne	.-14     	; 0x40fe <__ultoa_invert+0x5c>
    410c:	f6 cf       	rjmp	.-20     	; 0x40fa <__ultoa_invert+0x58>
    410e:	46 2f       	mov	r20, r22
    4110:	4f 70       	andi	r20, 0x0F	; 15
    4112:	40 5d       	subi	r20, 0xD0	; 208
    4114:	4a 33       	cpi	r20, 0x3A	; 58
    4116:	18 f0       	brcs	.+6      	; 0x411e <__ultoa_invert+0x7c>
    4118:	49 5d       	subi	r20, 0xD9	; 217
    411a:	31 fd       	sbrc	r19, 1
    411c:	40 52       	subi	r20, 0x20	; 32
    411e:	41 93       	st	Z+, r20
    4120:	02 d0       	rcall	.+4      	; 0x4126 <__ultoa_invert+0x84>
    4122:	a9 f7       	brne	.-22     	; 0x410e <__ultoa_invert+0x6c>
    4124:	ea cf       	rjmp	.-44     	; 0x40fa <__ultoa_invert+0x58>
    4126:	b4 e0       	ldi	r27, 0x04	; 4
    4128:	a6 95       	lsr	r26
    412a:	97 95       	ror	r25
    412c:	87 95       	ror	r24
    412e:	77 95       	ror	r23
    4130:	67 95       	ror	r22
    4132:	ba 95       	dec	r27
    4134:	c9 f7       	brne	.-14     	; 0x4128 <__ultoa_invert+0x86>
    4136:	00 97       	sbiw	r24, 0x00	; 0
    4138:	61 05       	cpc	r22, r1
    413a:	71 05       	cpc	r23, r1
    413c:	08 95       	ret
    413e:	9b 01       	movw	r18, r22
    4140:	ac 01       	movw	r20, r24
    4142:	0a 2e       	mov	r0, r26
    4144:	06 94       	lsr	r0
    4146:	57 95       	ror	r21
    4148:	47 95       	ror	r20
    414a:	37 95       	ror	r19
    414c:	27 95       	ror	r18
    414e:	ba 95       	dec	r27
    4150:	c9 f7       	brne	.-14     	; 0x4144 <__ultoa_invert+0xa2>
    4152:	62 0f       	add	r22, r18
    4154:	73 1f       	adc	r23, r19
    4156:	84 1f       	adc	r24, r20
    4158:	95 1f       	adc	r25, r21
    415a:	a0 1d       	adc	r26, r0
    415c:	08 95       	ret

0000415e <__do_global_dtors>:
    415e:	10 e0       	ldi	r17, 0x00	; 0
    4160:	ce e5       	ldi	r28, 0x5E	; 94
    4162:	d0 e0       	ldi	r29, 0x00	; 0
    4164:	04 c0       	rjmp	.+8      	; 0x416e <__do_global_dtors+0x10>
    4166:	fe 01       	movw	r30, r28
    4168:	0e 94 da 1c 	call	0x39b4	; 0x39b4 <__tablejump2__>
    416c:	21 96       	adiw	r28, 0x01	; 1
    416e:	cf 35       	cpi	r28, 0x5F	; 95
    4170:	d1 07       	cpc	r29, r17
    4172:	c9 f7       	brne	.-14     	; 0x4166 <__do_global_dtors+0x8>
    4174:	f8 94       	cli

00004176 <__stop_program>:
    4176:	ff cf       	rjmp	.-2      	; 0x4176 <__stop_program>
